

Microchip MPLAB XC8 Assembler V2.45 build 20230818022343 
                                                                                               Tue Oct 15 14:53:29 2024

Microchip MPLAB XC8 C Compiler v2.45 (Free license) build 20230818022343 Og1 
     1                           	processor	18F4620
     2                           	fnconf	rparam,??,?,0
     3                           	pagewidth 120
     4                           	opt	flic
     5                           	psect	idataCOMRAM,global,class=CODE,delta=1,noexec
     6                           	psect	smallconst,global,reloc=2,class=SMALLCONST,delta=1,noexec
     7                           	psect	cinit,global,reloc=2,class=CODE,delta=1
     8                           	psect	bssCOMRAM,global,class=COMRAM,space=1,delta=1,lowdata,noexec
     9                           	psect	dataCOMRAM,global,class=COMRAM,space=1,delta=1,lowdata,noexec
    10                           	psect	bssBANK0,global,class=BANK0,space=1,delta=1,lowdata,noexec
    11                           	psect	cstackCOMRAM,global,class=COMRAM,space=1,delta=1,lowdata,noexec
    12                           	psect	text0,global,reloc=2,class=CODE,delta=1
    13                           	psect	text1,global,reloc=2,class=CODE,delta=1
    14                           	psect	text2,global,reloc=2,class=CODE,delta=1
    15                           	psect	text3,global,reloc=2,class=CODE,delta=1
    16                           	psect	text4,global,reloc=2,class=CODE,delta=1
    17                           	psect	text5,global,reloc=2,class=CODE,delta=1
    18                           	psect	text6,global,reloc=2,class=CODE,delta=1
    19                           	psect	text7,global,reloc=2,class=CODE,delta=1
    20                           	psect	text8,global,reloc=2,class=CODE,delta=1
    21                           	psect	text9,global,reloc=2,class=CODE,delta=1,group=3
    22                           	psect	text10,global,reloc=2,class=CODE,delta=1,group=1
    23                           	psect	text11,global,reloc=2,class=CODE,delta=1,group=1
    24                           	psect	text12,global,reloc=2,class=CODE,delta=1,group=3
    25                           	psect	text13,global,reloc=2,class=CODE,delta=1,group=3
    26                           	psect	text14,global,reloc=2,class=CODE,delta=1,group=3
    27                           	psect	text15,global,reloc=2,class=CODE,delta=1,group=2
    28                           	psect	text16,global,reloc=2,class=CODE,delta=1,group=2
    29                           	psect	text17,global,reloc=2,class=CODE,delta=1,group=3
    30                           	psect	text18,global,reloc=2,class=CODE,delta=1
    31                           	psect	text19,global,reloc=2,class=CODE,delta=1
    32                           	psect	text20,global,reloc=2,class=CODE,delta=1
    33                           	psect	text21,global,reloc=2,class=CODE,delta=1
    34                           	psect	text22,global,reloc=2,class=CODE,delta=1
    35                           	psect	text23,global,reloc=2,class=CODE,delta=1
    36                           	psect	text24,global,reloc=2,class=CODE,delta=1
    37                           	psect	text25,global,reloc=2,class=CODE,delta=1
    38                           	psect	text26,global,reloc=2,class=CODE,delta=1
    39                           	psect	text27,global,reloc=2,class=CODE,delta=1
    40                           	psect	intsave_regs,global,class=BIGRAM,space=1,delta=1,noexec
    41                           	psect	rparam,global,class=COMRAM,space=1,delta=1,noexec
    42                           	psect	idloc,global,abs,ovrld,class=IDLOC,space=5,delta=1,noexec
    43                           	psect	config,global,abs,ovrld,class=CONFIG,space=4,delta=1,noexec
    44   000000                     
    45                           ; Version 2.40
    46                           ; Generated 17/11/2021 GMT
    47                           ; 
    48                           ; Copyright © 2021, Microchip Technology Inc. and its subsidiaries ("Microchip")
    49                           ; All rights reserved.
    50                           ; 
    51                           ; This software is developed by Microchip Technology Inc. and its subsidiaries ("Microch
      +                          ip").
    52                           ; 
    53                           ; Redistribution and use in source and binary forms, with or without modification, are
    54                           ; permitted provided that the following conditions are met:
    55                           ; 
    56                           ;     1. Redistributions of source code must retain the above copyright notice, this lis
      +                          t of
    57                           ;        conditions and the following disclaimer.
    58                           ; 
    59                           ;     2. Redistributions in binary form must reproduce the above copyright notice, this 
      +                          list
    60                           ;        of conditions and the following disclaimer in the documentation and/or other
    61                           ;        materials provided with the distribution. Publication is not required when
    62                           ;        this file is used in an embedded application.
    63                           ; 
    64                           ;     3. Microchip's name may not be used to endorse or promote products derived from th
      +                          is
    65                           ;        software without specific prior written permission.
    66                           ; 
    67                           ; THIS SOFTWARE IS PROVIDED BY MICROCHIP "AS IS" AND ANY EXPRESS OR IMPLIED WARRANTIES,
    68                           ; INCLUDING, BUT NOT LIMITED TO, THE IMPLIED WARRANTIES OF MERCHANTABILITY AND FITNESS F
      +                          OR
    69                           ; PURPOSE ARE DISCLAIMED.  IN NO EVENT SHALL MICROCHIP BE LIABLE FOR ANY DIRECT, INDIREC
      +                          T,
    70                           ; INCIDENTAL, SPECIAL, EXEMPLARY, OR CONSEQUENTIAL DAMAGES (INCLUDING BUT NOT LIMITED TO
    71                           ; PROCUREMENT OF SUBSTITUTE GOODS OR SERVICES; LOSS OF USE, DATA OR PROFITS; OR BUSINESS
    72                           ; INTERRUPTION) HOWSOEVER CAUSED AND ON ANY THEORY OF LIABILITY, WHETHER IN CONTRACT, ST
      +                          RICT
    73                           ; LIABILITY, OR TORT (INCLUDING NEGLIGENCE OR OTHERWISE) ARISING IN ANY WAY OUT OF THE U
      +                          SE OF
    74                           ; THIS SOFTWARE, EVEN IF ADVISED OF THE POSSIBILITY OF SUCH DAMAGE.
    75                           ; 
    76                           ; 
    77                           ; Code-generator required, PIC18F4620 Definitions
    78                           ; 
    79                           ; SFR Addresses
    80   000000                     
    81                           	psect	idataCOMRAM
    82   001D96                     __pidataCOMRAM:
    83                           	callstack 0
    84                           
    85                           ;initializer for _port_reg
    86   001D96  80                 	db	128
    87   001D97  0F                 	db	15
    88   001D98  81                 	db	129
    89   001D99  0F                 	db	15
    90   001D9A  82                 	db	130
    91   001D9B  0F                 	db	15
    92   001D9C  83                 	db	131
    93   001D9D  0F                 	db	15
    94   001D9E  84                 	db	132
    95   001D9F  0F                 	db	15
    96                           
    97                           ;initializer for _lat_reg
    98   001DA0  89                 	db	137
    99   001DA1  0F                 	db	15
   100   001DA2  8A                 	db	138
   101   001DA3  0F                 	db	15
   102   001DA4  8B                 	db	139
   103   001DA5  0F                 	db	15
   104   001DA6  8C                 	db	140
   105   001DA7  0F                 	db	15
   106   001DA8  8D                 	db	141
   107   001DA9  0F                 	db	15
   108                           
   109                           ;initializer for _tris_reg
   110   001DAA  92                 	db	146
   111   001DAB  0F                 	db	15
   112   001DAC  93                 	db	147
   113   001DAD  0F                 	db	15
   114   001DAE  94                 	db	148
   115   001DAF  0F                 	db	15
   116   001DB0  95                 	db	149
   117   001DB1  0F                 	db	15
   118   001DB2  96                 	db	150
   119   001DB3  0F                 	db	15
   120                           
   121                           ;initializer for _lcd_1
   122   001DB4  0B                 	db	11
   123   001DB5  13                 	db	19
   124   001DB6  01                 	db	1
   125   001DB7  09                 	db	9
   126   001DB8  11                 	db	17
   127   001DB9  19                 	db	25
   128   001DBA  21                 	db	33
   129   001DBB  29                 	db	41
   130   001DBC  31                 	db	49
   131   001DBD  39                 	db	57
   132                           
   133                           ;initializer for _keypad_1
   134   001DBE  02                 	db	2
   135   001DBF  0A                 	db	10
   136   001DC0  12                 	db	18
   137   001DC1  1A                 	db	26
   138   001DC2  62                 	db	98
   139   001DC3  6A                 	db	106
   140   001DC4  72                 	db	114
   141   001DC5  7A                 	db	122
   142                           
   143                           	psect	smallconst
   144   001000                     __psmallconst:
   145                           	callstack 0
   146   001000  00                 	db	0
   147   001001                     _keypad_buttons:
   148                           	callstack 0
   149   001001  37                 	db	55
   150   001002  38                 	db	56
   151   001003  39                 	db	57
   152   001004  2F                 	db	47
   153   001005  34                 	db	52
   154   001006  35                 	db	53
   155   001007  36                 	db	54
   156   001008  2A                 	db	42
   157   001009  31                 	db	49
   158   00100A  32                 	db	50
   159   00100B  33                 	db	51
   160   00100C  2D                 	db	45
   161   00100D  23                 	db	35
   162   00100E  30                 	db	48
   163   00100F  3D                 	db	61
   164   001010  2B                 	db	43
   165   001011                     __end_of_keypad_buttons:
   166                           	callstack 0
   167   000000                     _PORTE	set	3972
   168   000000                     _PORTD	set	3971
   169   000000                     _PORTC	set	3970
   170   000000                     _PORTB	set	3969
   171   000000                     _PORTA	set	3968
   172   000000                     _LATA	set	3977
   173   000000                     _TRISA	set	3986
   174   000000                     _INTCON3bits	set	4080
   175   000000                     _INTCONbits	set	4082
   176   000000                     _TRISE	set	3990
   177   000000                     _TRISD	set	3989
   178   000000                     _TRISC	set	3988
   179   000000                     _TRISB	set	3987
   180   000000                     _LATE	set	3981
   181   000000                     _LATD	set	3980
   182   000000                     _LATC	set	3979
   183   000000                     _LATB	set	3978
   184   001011                     STR_7:
   185   001011  6B                 	db	107	;'k'
   186   001012  65                 	db	101	;'e'
   187   001013  79                 	db	121	;'y'
   188   001014  70                 	db	112	;'p'
   189   001015  61                 	db	97	;'a'
   190   001016  64                 	db	100	;'d'
   191   001017  20                 	db	32
   192   001018  62                 	db	98	;'b'
   193   001019  74                 	db	116	;'t'
   194   00101A  6E                 	db	110	;'n'
   195   00101B  20                 	db	32
   196   00101C  70                 	db	112	;'p'
   197   00101D  72                 	db	114	;'r'
   198   00101E  65                 	db	101	;'e'
   199   00101F  73                 	db	115	;'s'
   200   001020  73                 	db	115	;'s'
   201   001021  65                 	db	101	;'e'
   202   001022  64                 	db	100	;'d'
   203   001023  3D                 	db	61	;'='
   204   001024  00                 	db	0
   205   001025                     STR_5:
   206   001025  45                 	db	69	;'E'
   207   001026  6D                 	db	109	;'m'
   208   001027  62                 	db	98	;'b'
   209   001028  65                 	db	101	;'e'
   210   001029  64                 	db	100	;'d'
   211   00102A  64                 	db	100	;'d'
   212   00102B  65                 	db	101	;'e'
   213   00102C  64                 	db	100	;'d'
   214   00102D  00                 	db	0
   215   00102E                     STR_6:
   216   00102E  57                 	db	87	;'W'
   217   00102F  6F                 	db	111	;'o'
   218   001030  72                 	db	114	;'r'
   219   001031  6C                 	db	108	;'l'
   220   001032  64                 	db	100	;'d'
   221   001033  20                 	db	32
   222   001034  21                 	db	33
   223   001035  00                 	db	0
   224   001036                     STR_4:
   225   001036  48                 	db	72	;'H'
   226   001037  65                 	db	101	;'e'
   227   001038  6C                 	db	108	;'l'
   228   001039  6C                 	db	108	;'l'
   229   00103A  6F                 	db	111	;'o'
   230   00103B  00                 	db	0
   231   00103C                     STR_1:
   232   00103C  25                 	db	37
   233   00103D  69                 	db	105	;'i'
   234   00103E  00                 	db	0
   235   00103F  00                 	db	0	; dummy byte at the end
   236   000000                     
   237                           ; #config settings
   238                           
   239                           	psect	cinit
   240   001C7A                     __pcinit:
   241                           	callstack 0
   242   001C7A                     start_initialization:
   243                           	callstack 0
   244   001C7A                     __initialization:
   245                           	callstack 0
   246                           
   247                           ; Initialize objects allocated to COMRAM (48 bytes)
   248                           ; load TBLPTR registers with __pidataCOMRAM
   249   001C7A  0E96               	movlw	low __pidataCOMRAM
   250   001C7C  6EF6               	movwf	tblptrl,c
   251   001C7E  0E1D               	movlw	high __pidataCOMRAM
   252   001C80  6EF7               	movwf	tblptrh,c
   253   001C82  0E00               	movlw	low (__pidataCOMRAM shr (0+16))
   254   001C84  6EF8               	movwf	tblptru,c
   255   001C86  EE00  F001         	lfsr	0,__pdataCOMRAM
   256   001C8A  EE10 F030          	lfsr	1,48
   257   001C8E                     copy_data0:
   258   001C8E  0009               	tblrd		*+
   259   001C90  CFF5 FFEE          	movff	tablat,postinc0
   260   001C94  50E5               	movf	postdec1,w,c
   261   001C96  50E1               	movf	fsr1l,w,c
   262   001C98  E1FA               	bnz	copy_data0
   263                           
   264                           ; Clear objects allocated to BANK0 (32 bytes)
   265   001C9A  EE00  F080         	lfsr	0,__pbssBANK0
   266   001C9E  0E20               	movlw	32
   267   001CA0                     clear_0:
   268   001CA0  6AEE               	clrf	postinc0,c
   269   001CA2  06E8               	decf	wreg,f,c
   270   001CA4  E1FD               	bnz	clear_0
   271                           
   272                           ; Clear objects allocated to COMRAM (22 bytes)
   273   001CA6  EE00  F05D         	lfsr	0,__pbssCOMRAM
   274   001CAA  0E16               	movlw	22
   275   001CAC                     clear_1:
   276   001CAC  6AEE               	clrf	postinc0,c
   277   001CAE  06E8               	decf	wreg,f,c
   278   001CB0  E1FD               	bnz	clear_1
   279   001CB2                     end_of_initialization:
   280                           	callstack 0
   281   001CB2                     __end_of__initialization:
   282                           	callstack 0
   283   001CB2  0100               	movlb	0
   284   001CB4  EFB8  F00B         	goto	_main	;jump to C main() function
   285                           
   286                           	psect	bssCOMRAM
   287   00005D                     __pbssCOMRAM:
   288                           	callstack 0
   289   00005D                     _width:
   290                           	callstack 0
   291   00005D                     	ds	2
   292   00005F                     _prec:
   293                           	callstack 0
   294   00005F                     	ds	2
   295   000061                     	ds	2
   296   000063                     	ds	2
   297   000065                     	ds	2
   298   000067                     _flags:
   299                           	callstack 0
   300   000067                     	ds	1
   301   000068                     _ret:
   302                           	callstack 0
   303   000068                     	ds	1
   304   000069                     relay_toggle@F3072:
   305                           	callstack 0
   306   000069                     	ds	1
   307   00006A                     relay_off@F3067:
   308                           	callstack 0
   309   00006A                     	ds	1
   310   00006B                     relay_on@F3062:
   311                           	callstack 0
   312   00006B                     	ds	1
   313   00006C                     relay_init@F3057:
   314                           	callstack 0
   315   00006C                     	ds	1
   316   00006D                     led_toggle@F3077:
   317                           	callstack 0
   318   00006D                     	ds	1
   319   00006E                     led_off@F3072:
   320                           	callstack 0
   321   00006E                     	ds	1
   322   00006F                     led_on@F3067:
   323                           	callstack 0
   324   00006F                     	ds	1
   325   000070                     led_init@F3062:
   326                           	callstack 0
   327   000070                     	ds	1
   328   000071                     _key:
   329                           	callstack 0
   330   000071                     	ds	1
   331   000072                     _str:
   332                           	callstack 0
   333   000072                     	ds	1
   334                           
   335                           	psect	dataCOMRAM
   336   000001                     __pdataCOMRAM:
   337                           	callstack 0
   338   000001                     _port_reg:
   339                           	callstack 0
   340   000001                     	ds	10
   341   00000B                     _lat_reg:
   342                           	callstack 0
   343   00000B                     	ds	10
   344   000015                     _tris_reg:
   345                           	callstack 0
   346   000015                     	ds	10
   347   00001F                     _lcd_1:
   348                           	callstack 0
   349   00001F                     	ds	10
   350   000029                     _keypad_1:
   351                           	callstack 0
   352   000029                     	ds	8
   353                           
   354                           	psect	bssBANK0
   355   000080                     __pbssBANK0:
   356                           	callstack 0
   357   000080                     _dbuf:
   358                           	callstack 0
   359   000080                     	ds	32
   360                           
   361                           	psect	cstackCOMRAM
   362   000031                     __pcstackCOMRAM:
   363                           	callstack 0
   364   000031                     ?___awdiv:
   365                           	callstack 0
   366   000031                     ?___awmod:
   367                           	callstack 0
   368   000031                     gpio_pin_direction_init@pin_confg:
   369                           	callstack 0
   370   000031                     gpio_pin_write@pin_confg:
   371                           	callstack 0
   372   000031                     gpio_pin_read@pin_confg:
   373                           	callstack 0
   374   000031                     memset@dest:
   375                           	callstack 0
   376   000031                     ___awdiv@dividend:
   377                           	callstack 0
   378   000031                     ___awmod@dividend:
   379                           	callstack 0
   380   000031                     fputc@c:
   381                           	callstack 0
   382                           
   383                           ; 2 bytes @ 0x0
   384   000031                     	ds	1
   385   000032                     ??_gpio_pin_direction_init:
   386   000032                     gpio_pin_write@pin_state:
   387                           	callstack 0
   388   000032                     gpio_pin_read@pin_state:
   389                           	callstack 0
   390   000032                     memset@c:
   391                           	callstack 0
   392                           
   393                           ; 2 bytes @ 0x1
   394   000032                     	ds	1
   395   000033                     ??_gpio_pin_write:
   396   000033                     ??_gpio_pin_read:
   397   000033                     fputc@fp:
   398                           	callstack 0
   399   000033                     ___awdiv@divisor:
   400                           	callstack 0
   401   000033                     ___awmod@divisor:
   402                           	callstack 0
   403                           
   404                           ; 2 bytes @ 0x2
   405   000033                     	ds	1
   406   000034                     ??_fputc:
   407   000034                     memset@n:
   408                           	callstack 0
   409                           
   410                           ; 2 bytes @ 0x3
   411   000034                     	ds	1
   412   000035                     ___awdiv@counter:
   413                           	callstack 0
   414   000035                     ___awmod@counter:
   415                           	callstack 0
   416                           
   417                           ; 1 bytes @ 0x4
   418   000035                     	ds	1
   419   000036                     ___awdiv@sign:
   420                           	callstack 0
   421   000036                     ___awmod@sign:
   422                           	callstack 0
   423   000036                     memset@p:
   424                           	callstack 0
   425                           
   426                           ; 1 bytes @ 0x5
   427   000036                     	ds	1
   428   000037                     ?_abs:
   429                           	callstack 0
   430   000037                     gpio_pin_direction_init@ret:
   431                           	callstack 0
   432   000037                     gpio_pin_read@ret:
   433                           	callstack 0
   434   000037                     ___awdiv@quotient:
   435                           	callstack 0
   436   000037                     abs@a:
   437                           	callstack 0
   438                           
   439                           ; 2 bytes @ 0x6
   440   000037                     	ds	1
   441   000038                     gpio_pin_write@ret:
   442                           	callstack 0
   443                           
   444                           ; 1 bytes @ 0x7
   445   000038                     	ds	1
   446   000039                     ??_abs:
   447   000039                     lcd_send_bits@lcd_obj:
   448                           	callstack 0
   449   000039                     lcd_send_enable_signal@lcd_obj:
   450                           	callstack 0
   451   000039                     keypad_get_key_pressed@keypad_obj:
   452                           	callstack 0
   453   000039                     gpio_pin_init@pin_confg:
   454                           	callstack 0
   455                           
   456                           ; 1 bytes @ 0x8
   457   000039                     	ds	1
   458   00003A                     ??_gpio_pin_init:
   459   00003A                     lcd_send_bits@data_cmd:
   460                           	callstack 0
   461   00003A                     lcd_send_enable_signal@ret:
   462                           	callstack 0
   463   00003A                     keypad_get_key_pressed@value:
   464                           	callstack 0
   465                           
   466                           ; 1 bytes @ 0x9
   467   00003A                     	ds	1
   468   00003B                     ??_lcd_send_bits:
   469   00003B                     ??_keypad_get_key_pressed:
   470   00003B                     gpio_pin_init@ret:
   471                           	callstack 0
   472   00003B                     vfpfcnvrt@fp:
   473                           	callstack 0
   474                           
   475                           ; 1 bytes @ 0xA
   476   00003B                     	ds	1
   477   00003C                     keypad_init@keypad_obj:
   478                           	callstack 0
   479   00003C                     keypad_get_key_pressed@num:
   480                           	callstack 0
   481   00003C                     vfpfcnvrt@fmt:
   482                           	callstack 0
   483                           
   484                           ; 1 bytes @ 0xB
   485   00003C                     	ds	1
   486   00003D                     lcd_send_bits@ret:
   487                           	callstack 0
   488   00003D                     keypad_init@row_count:
   489                           	callstack 0
   490   00003D                     keypad_get_key_pressed@col_pin_state:
   491                           	callstack 0
   492   00003D                     vfpfcnvrt@ap:
   493                           	callstack 0
   494                           
   495                           ; 1 bytes @ 0xC
   496   00003D                     	ds	1
   497   00003E                     ??_vfpfcnvrt:
   498   00003E                     lcd_send_bits@l_count:
   499                           	callstack 0
   500   00003E                     keypad_init@column_count:
   501                           	callstack 0
   502   00003E                     keypad_get_key_pressed@l_count:
   503                           	callstack 0
   504                           
   505                           ; 1 bytes @ 0xD
   506   00003E                     	ds	1
   507   00003F                     lcd_send_command@lcd_obj:
   508                           	callstack 0
   509   00003F                     lcd_send_char_data@lcd_obj:
   510                           	callstack 0
   511   00003F                     keypad_get_key_pressed@l_row_count:
   512                           	callstack 0
   513   00003F                     vfpfcnvrt@done:
   514                           	callstack 0
   515                           
   516                           ; 1 bytes @ 0xE
   517   00003F                     	ds	1
   518   000040                     lcd_send_command@cmd:
   519                           	callstack 0
   520   000040                     lcd_send_char_data@data:
   521                           	callstack 0
   522   000040                     keypad_get_key_pressed@l_column_count:
   523                           	callstack 0
   524   000040                     vfpfcnvrt@cp:
   525                           	callstack 0
   526                           
   527                           ; 1 bytes @ 0xF
   528   000040                     	ds	1
   529   000041                     lcd_send_command@l_count:
   530                           	callstack 0
   531   000041                     lcd_send_char_data@ret:
   532                           	callstack 0
   533   000041                     vfpfcnvrt@convarg:
   534                           	callstack 0
   535                           
   536                           ; 4 bytes @ 0x10
   537   000041                     	ds	1
   538   000042                     lcd_send_command@ret:
   539                           	callstack 0
   540   000042                     lcd_send_string_data@lcd_obj:
   541                           	callstack 0
   542                           
   543                           ; 1 bytes @ 0x11
   544   000042                     	ds	1
   545   000043                     lcd_init@lcd_obj:
   546                           	callstack 0
   547   000043                     lcd_send_string_data@str:
   548                           	callstack 0
   549   000043                     lcd_set_cursor_position@lcd_obj:
   550                           	callstack 0
   551                           
   552                           ; 1 bytes @ 0x12
   553   000043                     	ds	1
   554   000044                     ??_lcd_init:
   555   000044                     lcd_send_string_data@ret:
   556                           	callstack 0
   557   000044                     lcd_set_cursor_position@row:
   558                           	callstack 0
   559                           
   560                           ; 1 bytes @ 0x13
   561   000044                     	ds	1
   562   000045                     lcd_init@ret:
   563                           	callstack 0
   564   000045                     lcd_set_cursor_position@col:
   565                           	callstack 0
   566   000045                     vfpfcnvrt@c:
   567                           	callstack 0
   568                           
   569                           ; 1 bytes @ 0x14
   570   000045                     	ds	1
   571   000046                     ??_lcd_set_cursor_position:
   572   000046                     ?_vfprintf:
   573                           	callstack 0
   574   000046                     lcd_init@l_count:
   575                           	callstack 0
   576   000046                     vfprintf@fp:
   577                           	callstack 0
   578                           
   579                           ; 1 bytes @ 0x15
   580   000046                     	ds	1
   581   000047                     vfprintf@fmt:
   582                           	callstack 0
   583                           
   584                           ; 1 bytes @ 0x16
   585   000047                     	ds	1
   586   000048                     lcd_send_char_data_position@lcd_obj:
   587                           	callstack 0
   588   000048                     lcd_send_string_data_position@lcd_obj:
   589                           	callstack 0
   590   000048                     vfprintf@ap:
   591                           	callstack 0
   592                           
   593                           ; 1 bytes @ 0x17
   594   000048                     	ds	1
   595   000049                     lcd_send_char_data_position@data:
   596                           	callstack 0
   597   000049                     lcd_send_string_data_position@str:
   598                           	callstack 0
   599   000049                     vfprintf@cfmt:
   600                           	callstack 0
   601                           
   602                           ; 1 bytes @ 0x18
   603   000049                     	ds	1
   604   00004A                     ?_sprintf:
   605                           	callstack 0
   606   00004A                     lcd_send_char_data_position@row:
   607                           	callstack 0
   608   00004A                     lcd_send_string_data_position@row:
   609                           	callstack 0
   610   00004A                     sprintf@s:
   611                           	callstack 0
   612                           
   613                           ; 1 bytes @ 0x19
   614   00004A                     	ds	1
   615   00004B                     lcd_send_char_data_position@col:
   616                           	callstack 0
   617   00004B                     lcd_send_string_data_position@col:
   618                           	callstack 0
   619   00004B                     sprintf@fmt:
   620                           	callstack 0
   621                           
   622                           ; 1 bytes @ 0x1A
   623   00004B                     	ds	1
   624   00004C                     lcd_send_char_data_position@ret:
   625                           	callstack 0
   626   00004C                     lcd_send_string_data_position@ret:
   627                           	callstack 0
   628                           
   629                           ; 1 bytes @ 0x1B
   630   00004C                     	ds	2
   631   00004E                     sprintf@ap:
   632                           	callstack 0
   633                           
   634                           ; 1 bytes @ 0x1D
   635   00004E                     	ds	1
   636   00004F                     sprintf@f:
   637                           	callstack 0
   638                           
   639                           ; 12 bytes @ 0x1E
   640   00004F                     	ds	12
   641   00005B                     convert_uint8_to_string@str:
   642                           	callstack 0
   643                           
   644                           ; 1 bytes @ 0x2A
   645   00005B                     	ds	1
   646   00005C                     convert_uint8_to_string@value:
   647                           	callstack 0
   648                           
   649                           ; 1 bytes @ 0x2B
   650   00005C                     	ds	1
   651   00005D                     
   652                           ; 1 bytes @ 0x2C
   653 ;;
   654 ;;Main: autosize = 0, tempsize = 0, incstack = 0, save=0
   655 ;;
   656 ;; *************** function _main *****************
   657 ;; Defined at:
   658 ;;		line 18 in file "application.c"
   659 ;; Parameters:    Size  Location     Type
   660 ;;		None
   661 ;; Auto vars:     Size  Location     Type
   662 ;;		None
   663 ;; Return value:  Size  Location     Type
   664 ;;                  2  893[None  ] int 
   665 ;; Registers used:
   666 ;;		wreg, fsr1l, fsr1h, fsr2l, fsr2h, status,2, status,0, tblptrl, tblptrh, tblptru, prodl, prodh, cstack
   667 ;; Tracked objects:
   668 ;;		On entry : 0/0
   669 ;;		On exit  : 0/0
   670 ;;		Unchanged: 0/0
   671 ;; Data sizes:     COMRAM   BANK0   BANK1   BANK2   BANK3   BANK4   BANK5   BANK6   BANK7   BANK8   BANK9  BANK10  BANK1
      +1  BANK12  BANK13  BANK14  BANK15
   672 ;;      Params:         0       0       0       0       0       0       0       0       0       0       0       0       
      +0       0       0       0       0
   673 ;;      Locals:         0       0       0       0       0       0       0       0       0       0       0       0       
      +0       0       0       0       0
   674 ;;      Temps:          0       0       0       0       0       0       0       0       0       0       0       0       
      +0       0       0       0       0
   675 ;;      Totals:         0       0       0       0       0       0       0       0       0       0       0       0       
      +0       0       0       0       0
   676 ;;Total ram usage:        0 bytes
   677 ;; Hardware stack levels required when called: 6
   678 ;; This function calls:
   679 ;;		_app_init
   680 ;;		_convert_uint8_to_string
   681 ;;		_keypad_get_key_pressed
   682 ;;		_lcd_send_char_data_position
   683 ;;		_lcd_send_command
   684 ;;		_lcd_send_string_data_position
   685 ;; This function is called by:
   686 ;;		Startup code after reset
   687 ;; This function uses a non-reentrant model
   688 ;;
   689                           
   690                           	psect	text0
   691   001770                     __ptext0:
   692                           	callstack 0
   693   001770                     _main:
   694                           	callstack 25
   695   001770                     
   696                           ;application.c: 20:     app_init();
   697   001770  EC17  F00F         	call	_app_init	;wreg free
   698                           
   699                           ;application.c: 21:           ret=lcd_send_command(&lcd_1,0x0F);
   700   001774  0E1F               	movlw	low _lcd_1
   701   001776  6E3F               	movwf	lcd_send_command@lcd_obj^0,c
   702   001778  0E0F               	movlw	15
   703   00177A  6E40               	movwf	lcd_send_command@cmd^0,c
   704   00177C  ECB7  F00D         	call	_lcd_send_command	;wreg free
   705   001780  6E68               	movwf	_ret^0,c
   706                           
   707                           ;application.c: 22:            ret=lcd_send_command(&lcd_1,0x0E);
   708   001782  0E1F               	movlw	low _lcd_1
   709   001784  6E3F               	movwf	lcd_send_command@lcd_obj^0,c
   710   001786  0E0E               	movlw	14
   711   001788  6E40               	movwf	lcd_send_command@cmd^0,c
   712   00178A  ECB7  F00D         	call	_lcd_send_command	;wreg free
   713   00178E  6E68               	movwf	_ret^0,c
   714   001790                     
   715                           ;application.c: 24:            ret=lcd_send_string_data_position(&lcd_1,"Hello",1,2);
   716   001790  0E1F               	movlw	low _lcd_1
   717   001792  6E48               	movwf	lcd_send_string_data_position@lcd_obj^0,c
   718   001794  0E36               	movlw	low STR_4
   719   001796  6E49               	movwf	lcd_send_string_data_position@str^0,c
   720   001798  0E01               	movlw	1
   721   00179A  6E4A               	movwf	lcd_send_string_data_position@row^0,c
   722   00179C  0E02               	movlw	2
   723   00179E  6E4B               	movwf	lcd_send_string_data_position@col^0,c
   724   0017A0  EC7A  F00E         	call	_lcd_send_string_data_position	;wreg free
   725   0017A4  6E68               	movwf	_ret^0,c
   726   0017A6                     
   727                           ;application.c: 25:            ret=lcd_send_string_data_position(&lcd_1,"Embedded",2,3);
   728   0017A6  0E1F               	movlw	low _lcd_1
   729   0017A8  6E48               	movwf	lcd_send_string_data_position@lcd_obj^0,c
   730   0017AA  0E25               	movlw	low STR_5
   731   0017AC  6E49               	movwf	lcd_send_string_data_position@str^0,c
   732   0017AE  0E02               	movlw	2
   733   0017B0  6E4A               	movwf	lcd_send_string_data_position@row^0,c
   734   0017B2  0E03               	movlw	3
   735   0017B4  6E4B               	movwf	lcd_send_string_data_position@col^0,c
   736   0017B6  EC7A  F00E         	call	_lcd_send_string_data_position	;wreg free
   737   0017BA  6E68               	movwf	_ret^0,c
   738   0017BC                     
   739                           ;application.c: 26:            ret=lcd_send_string_data_position(&lcd_1,"World !",3,4);
   740   0017BC  0E1F               	movlw	low _lcd_1
   741   0017BE  6E48               	movwf	lcd_send_string_data_position@lcd_obj^0,c
   742   0017C0  0E2E               	movlw	low STR_6
   743   0017C2  6E49               	movwf	lcd_send_string_data_position@str^0,c
   744   0017C4  0E03               	movlw	3
   745   0017C6  6E4A               	movwf	lcd_send_string_data_position@row^0,c
   746   0017C8  0E04               	movlw	4
   747   0017CA  6E4B               	movwf	lcd_send_string_data_position@col^0,c
   748   0017CC  EC7A  F00E         	call	_lcd_send_string_data_position	;wreg free
   749   0017D0  6E68               	movwf	_ret^0,c
   750   0017D2                     
   751                           ;application.c: 27:            ret=lcd_send_string_data_position(&lcd_1,"keypad btn pres
      +                          sed=",4,1);
   752   0017D2  0E1F               	movlw	low _lcd_1
   753   0017D4  6E48               	movwf	lcd_send_string_data_position@lcd_obj^0,c
   754   0017D6  0E11               	movlw	low STR_7
   755   0017D8  6E49               	movwf	lcd_send_string_data_position@str^0,c
   756   0017DA  0E04               	movlw	4
   757   0017DC  6E4A               	movwf	lcd_send_string_data_position@row^0,c
   758   0017DE  0E01               	movlw	1
   759   0017E0  6E4B               	movwf	lcd_send_string_data_position@col^0,c
   760   0017E2  EC7A  F00E         	call	_lcd_send_string_data_position	;wreg free
   761   0017E6  6E68               	movwf	_ret^0,c
   762   0017E8                     l3365:
   763                           
   764                           ;application.c: 32:         keypad_get_key_pressed(&keypad_1,&key);
   765   0017E8  0E29               	movlw	low _keypad_1
   766   0017EA  6E39               	movwf	keypad_get_key_pressed@keypad_obj^0,c
   767   0017EC  0E71               	movlw	low _key
   768   0017EE  6E3A               	movwf	keypad_get_key_pressed@value^0,c
   769   0017F0  EC1B  F00A         	call	_keypad_get_key_pressed	;wreg free
   770   0017F4                     
   771                           ;application.c: 34:         ret= convert_uint8_to_string(key,&str);
   772   0017F4  0E72               	movlw	low _str
   773   0017F6  6E5B               	movwf	convert_uint8_to_string@str^0,c
   774   0017F8  5071               	movf	_key^0,w,c
   775   0017FA  ECDA  F00D         	call	_convert_uint8_to_string
   776   0017FE  6E68               	movwf	_ret^0,c
   777   001800                     
   778                           ;application.c: 36:         ret=lcd_send_char_data_position(&lcd_1,key,4,20);
   779   001800  0E1F               	movlw	low _lcd_1
   780   001802  6E48               	movwf	lcd_send_char_data_position@lcd_obj^0,c
   781   001804  C071  F049         	movff	_key,lcd_send_char_data_position@data
   782   001808  0E04               	movlw	4
   783   00180A  6E4A               	movwf	lcd_send_char_data_position@row^0,c
   784   00180C  0E14               	movlw	20
   785   00180E  6E4B               	movwf	lcd_send_char_data_position@col^0,c
   786   001810  EC5C  F00E         	call	_lcd_send_char_data_position	;wreg free
   787   001814  6E68               	movwf	_ret^0,c
   788   001816  EFF4  F00B         	goto	l3365
   789   00181A  EF00  F000         	goto	start
   790   00181E                     __end_of_main:
   791                           	callstack 0
   792                           
   793 ;; *************** function _lcd_send_string_data_position *****************
   794 ;; Defined at:
   795 ;;		line 202 in file "ECU_Layer/Char_LCD/ecu_char_LDC.c"
   796 ;; Parameters:    Size  Location     Type
   797 ;;  lcd_obj         1   23[COMRAM] PTR const struct .
   798 ;;		 -> lcd_1(10), 
   799 ;;  str             1   24[COMRAM] PTR unsigned char 
   800 ;;		 -> STR_7(20), STR_6(8), STR_5(9), STR_4(6), 
   801 ;;  row             1   25[COMRAM] unsigned char 
   802 ;;  col             1   26[COMRAM] unsigned char 
   803 ;; Auto vars:     Size  Location     Type
   804 ;;  ret             1   27[COMRAM] unsigned char 
   805 ;; Return value:  Size  Location     Type
   806 ;;                  1    wreg      unsigned char 
   807 ;; Registers used:
   808 ;;		wreg, fsr2l, fsr2h, status,2, status,0, tblptrl, tblptrh, tblptru, prodl, prodh, cstack
   809 ;; Tracked objects:
   810 ;;		On entry : 0/0
   811 ;;		On exit  : 0/0
   812 ;;		Unchanged: 0/0
   813 ;; Data sizes:     COMRAM   BANK0   BANK1   BANK2   BANK3   BANK4   BANK5   BANK6   BANK7   BANK8   BANK9  BANK10  BANK1
      +1  BANK12  BANK13  BANK14  BANK15
   814 ;;      Params:         4       0       0       0       0       0       0       0       0       0       0       0       
      +0       0       0       0       0
   815 ;;      Locals:         1       0       0       0       0       0       0       0       0       0       0       0       
      +0       0       0       0       0
   816 ;;      Temps:          0       0       0       0       0       0       0       0       0       0       0       0       
      +0       0       0       0       0
   817 ;;      Totals:         5       0       0       0       0       0       0       0       0       0       0       0       
      +0       0       0       0       0
   818 ;;Total ram usage:        5 bytes
   819 ;; Hardware stack levels used: 1
   820 ;; Hardware stack levels required when called: 4
   821 ;; This function calls:
   822 ;;		_lcd_send_string_data
   823 ;;		_lcd_set_cursor_position
   824 ;; This function is called by:
   825 ;;		_main
   826 ;; This function uses a non-reentrant model
   827 ;;
   828                           
   829                           	psect	text1
   830   001CF4                     __ptext1:
   831                           	callstack 0
   832   001CF4                     _lcd_send_string_data_position:
   833                           	callstack 26
   834   001CF4                     
   835                           ;ECU_Layer/Char_LCD/ecu_char_LDC.c: 204:     if(((void*)0) == lcd_obj)
   836   001CF4  5048               	movf	lcd_send_string_data_position@lcd_obj^0,w,c
   837   001CF6  A4D8               	btfss	status,2,c
   838   001CF8  EF80  F00E         	goto	u1751
   839   001CFC  EF82  F00E         	goto	u1750
   840   001D00                     u1751:
   841   001D00  EF86  F00E         	goto	l3035
   842   001D04                     u1750:
   843   001D04                     
   844                           ;ECU_Layer/Char_LCD/ecu_char_LDC.c: 205:     {;ECU_Layer/Char_LCD/ecu_char_LDC.c: 206:  
      +                                 ret=((Std_RetrunType) 0x00);
   845   001D04  0E00               	movlw	0
   846   001D06  6E4C               	movwf	lcd_send_string_data_position@ret^0,c
   847                           
   848                           ;ECU_Layer/Char_LCD/ecu_char_LDC.c: 207:     }
   849   001D08  EF95  F00E         	goto	l3039
   850   001D0C                     l3035:
   851   001D0C  C048  F043         	movff	lcd_send_string_data_position@lcd_obj,lcd_set_cursor_position@lcd_obj
   852   001D10  C04A  F044         	movff	lcd_send_string_data_position@row,lcd_set_cursor_position@row
   853   001D14  C04B  F045         	movff	lcd_send_string_data_position@col,lcd_set_cursor_position@col
   854   001D18  ECB6  F00C         	call	_lcd_set_cursor_position	;wreg free
   855   001D1C                     
   856                           ;ECU_Layer/Char_LCD/ecu_char_LDC.c: 211:         ret=lcd_send_string_data(lcd_obj,str);
   857   001D1C  C048  F042         	movff	lcd_send_string_data_position@lcd_obj,lcd_send_string_data@lcd_obj
   858   001D20  C049  F043         	movff	lcd_send_string_data_position@str,lcd_send_string_data@str
   859   001D24  EC65  F00D         	call	_lcd_send_string_data	;wreg free
   860   001D28  6E4C               	movwf	lcd_send_string_data_position@ret^0,c
   861   001D2A                     l3039:
   862                           
   863                           ;ECU_Layer/Char_LCD/ecu_char_LDC.c: 216:     return ret;
   864   001D2A  504C               	movf	lcd_send_string_data_position@ret^0,w,c
   865   001D2C  0012               	return		;funcret
   866   001D2E                     __end_of_lcd_send_string_data_position:
   867                           	callstack 0
   868                           
   869 ;; *************** function _lcd_send_string_data *****************
   870 ;; Defined at:
   871 ;;		line 176 in file "ECU_Layer/Char_LCD/ecu_char_LDC.c"
   872 ;; Parameters:    Size  Location     Type
   873 ;;  lcd_obj         1   17[COMRAM] PTR const struct .
   874 ;;		 -> lcd_1(10), 
   875 ;;  str             1   18[COMRAM] PTR unsigned char 
   876 ;;		 -> STR_7(20), STR_6(8), STR_5(9), STR_4(6), 
   877 ;; Auto vars:     Size  Location     Type
   878 ;;  ret             1   19[COMRAM] unsigned char 
   879 ;; Return value:  Size  Location     Type
   880 ;;                  1    wreg      unsigned char 
   881 ;; Registers used:
   882 ;;		wreg, fsr2l, fsr2h, status,2, status,0, tblptrl, tblptrh, tblptru, prodl, prodh, cstack
   883 ;; Tracked objects:
   884 ;;		On entry : 0/0
   885 ;;		On exit  : 0/0
   886 ;;		Unchanged: 0/0
   887 ;; Data sizes:     COMRAM   BANK0   BANK1   BANK2   BANK3   BANK4   BANK5   BANK6   BANK7   BANK8   BANK9  BANK10  BANK1
      +1  BANK12  BANK13  BANK14  BANK15
   888 ;;      Params:         2       0       0       0       0       0       0       0       0       0       0       0       
      +0       0       0       0       0
   889 ;;      Locals:         1       0       0       0       0       0       0       0       0       0       0       0       
      +0       0       0       0       0
   890 ;;      Temps:          0       0       0       0       0       0       0       0       0       0       0       0       
      +0       0       0       0       0
   891 ;;      Totals:         3       0       0       0       0       0       0       0       0       0       0       0       
      +0       0       0       0       0
   892 ;;Total ram usage:        3 bytes
   893 ;; Hardware stack levels used: 1
   894 ;; Hardware stack levels required when called: 3
   895 ;; This function calls:
   896 ;;		_lcd_send_char_data
   897 ;; This function is called by:
   898 ;;		_lcd_send_string_data_position
   899 ;; This function uses a non-reentrant model
   900 ;;
   901                           
   902                           	psect	text2
   903   001ACA                     __ptext2:
   904                           	callstack 0
   905   001ACA                     _lcd_send_string_data:
   906                           	callstack 26
   907   001ACA                     
   908                           ;ECU_Layer/Char_LCD/ecu_char_LDC.c: 177:     Std_RetrunType ret=((Std_RetrunType) 0x00);
   909   001ACA  0E00               	movlw	0
   910   001ACC  6E44               	movwf	lcd_send_string_data@ret^0,c
   911                           
   912                           ;ECU_Layer/Char_LCD/ecu_char_LDC.c: 178:     if(((void*)0) == lcd_obj)
   913   001ACE  5042               	movf	lcd_send_string_data@lcd_obj^0,w,c
   914   001AD0  A4D8               	btfss	status,2,c
   915   001AD2  EF6D  F00D         	goto	u1711
   916   001AD6  EF6F  F00D         	goto	u1710
   917   001ADA                     u1711:
   918   001ADA  EF81  F00D         	goto	l2993
   919   001ADE                     u1710:
   920   001ADE                     
   921                           ;ECU_Layer/Char_LCD/ecu_char_LDC.c: 179:     {;ECU_Layer/Char_LCD/ecu_char_LDC.c: 180:  
      +                                 ret=((Std_RetrunType) 0x00);
   922   001ADE  0E00               	movlw	0
   923   001AE0  6E44               	movwf	lcd_send_string_data@ret^0,c
   924                           
   925                           ;ECU_Layer/Char_LCD/ecu_char_LDC.c: 181:     }
   926   001AE2  EF90  F00D         	goto	l2995
   927   001AE6                     l2989:
   928                           
   929                           ;ECU_Layer/Char_LCD/ecu_char_LDC.c: 185:         {;ECU_Layer/Char_LCD/ecu_char_LDC.c: 18
      +                          6:             ret=lcd_send_char_data(lcd_obj,*str++);
   930   001AE6  C042  F03F         	movff	lcd_send_string_data@lcd_obj,lcd_send_char_data@lcd_obj
   931   001AEA  C043  FFF6         	movff	lcd_send_string_data@str,tblptrl
   932   001AEE                     	if	1	;There is more than 1 active tblptr byte
   933   001AEE  0E10               	movlw	high __smallconst
   934   001AF0  6EF7               	movwf	tblptrh,c
   935   001AF2                     	endif
   936   001AF2                     	if	1	;Program memory is < 0x10000, tblptru is always zero
   937   001AF2  6AF8               	clrf	tblptru,c
   938   001AF4                     	endif
   939   001AF4                     	if	0	;tblptru may be non-zero
   940   001AF4                     	endif
   941   001AF4  0008               	tblrd		*
   942   001AF6  CFF5 F040          	movff	tablat,lcd_send_char_data@data
   943   001AFA  ECFC  F00D         	call	_lcd_send_char_data	;wreg free
   944   001AFE  6E44               	movwf	lcd_send_string_data@ret^0,c
   945   001B00  2A43               	incf	lcd_send_string_data@str^0,f,c
   946   001B02                     l2993:
   947                           
   948                           ;ECU_Layer/Char_LCD/ecu_char_LDC.c: 184:         while(*str != '\0')
   949   001B02  C043  FFF6         	movff	lcd_send_string_data@str,tblptrl
   950   001B06                     	if	1	;There is more than 1 active tblptr byte
   951   001B06  0E10               	movlw	high __smallconst
   952   001B08  6EF7               	movwf	tblptrh,c
   953   001B0A                     	endif
   954   001B0A                     	if	1	;Program memory is < 0x10000, tblptru is always zero
   955   001B0A  6AF8               	clrf	tblptru,c
   956   001B0C                     	endif
   957   001B0C                     	if	0	;tblptru may be non-zero
   958   001B0C                     	endif
   959   001B0C  0008               	tblrd		*
   960   001B0E  50F5               	movf	tablat,w,c
   961   001B10  0900               	iorlw	0
   962   001B12  A4D8               	btfss	status,2,c
   963   001B14  EF8E  F00D         	goto	u1721
   964   001B18  EF90  F00D         	goto	u1720
   965   001B1C                     u1721:
   966   001B1C  EF73  F00D         	goto	l2989
   967   001B20                     u1720:
   968   001B20                     l2995:
   969                           
   970                           ;ECU_Layer/Char_LCD/ecu_char_LDC.c: 190:     return ret;
   971   001B20  5044               	movf	lcd_send_string_data@ret^0,w,c
   972   001B22  0012               	return		;funcret
   973   001B24                     __end_of_lcd_send_string_data:
   974                           	callstack 0
   975                           
   976 ;; *************** function _lcd_send_char_data_position *****************
   977 ;; Defined at:
   978 ;;		line 153 in file "ECU_Layer/Char_LCD/ecu_char_LDC.c"
   979 ;; Parameters:    Size  Location     Type
   980 ;;  lcd_obj         1   23[COMRAM] PTR const struct .
   981 ;;		 -> lcd_1(10), 
   982 ;;  data            1   24[COMRAM] unsigned char 
   983 ;;  row             1   25[COMRAM] unsigned char 
   984 ;;  col             1   26[COMRAM] unsigned char 
   985 ;; Auto vars:     Size  Location     Type
   986 ;;  ret             1   27[COMRAM] unsigned char 
   987 ;; Return value:  Size  Location     Type
   988 ;;                  1    wreg      unsigned char 
   989 ;; Registers used:
   990 ;;		wreg, fsr2l, fsr2h, status,2, status,0, prodl, prodh, cstack
   991 ;; Tracked objects:
   992 ;;		On entry : 0/0
   993 ;;		On exit  : 0/0
   994 ;;		Unchanged: 0/0
   995 ;; Data sizes:     COMRAM   BANK0   BANK1   BANK2   BANK3   BANK4   BANK5   BANK6   BANK7   BANK8   BANK9  BANK10  BANK1
      +1  BANK12  BANK13  BANK14  BANK15
   996 ;;      Params:         4       0       0       0       0       0       0       0       0       0       0       0       
      +0       0       0       0       0
   997 ;;      Locals:         1       0       0       0       0       0       0       0       0       0       0       0       
      +0       0       0       0       0
   998 ;;      Temps:          0       0       0       0       0       0       0       0       0       0       0       0       
      +0       0       0       0       0
   999 ;;      Totals:         5       0       0       0       0       0       0       0       0       0       0       0       
      +0       0       0       0       0
  1000 ;;Total ram usage:        5 bytes
  1001 ;; Hardware stack levels used: 1
  1002 ;; Hardware stack levels required when called: 4
  1003 ;; This function calls:
  1004 ;;		_lcd_send_char_data
  1005 ;;		_lcd_set_cursor_position
  1006 ;; This function is called by:
  1007 ;;		_main
  1008 ;;		_lcd_send_custom_char
  1009 ;; This function uses a non-reentrant model
  1010 ;;
  1011                           
  1012                           	psect	text3
  1013   001CB8                     __ptext3:
  1014                           	callstack 0
  1015   001CB8                     _lcd_send_char_data_position:
  1016                           	callstack 26
  1017   001CB8                     
  1018                           ;ECU_Layer/Char_LCD/ecu_char_LDC.c: 155:     if(((void*)0) == lcd_obj)
  1019   001CB8  5048               	movf	lcd_send_char_data_position@lcd_obj^0,w,c
  1020   001CBA  A4D8               	btfss	status,2,c
  1021   001CBC  EF62  F00E         	goto	u1741
  1022   001CC0  EF64  F00E         	goto	u1740
  1023   001CC4                     u1741:
  1024   001CC4  EF68  F00E         	goto	l3025
  1025   001CC8                     u1740:
  1026   001CC8                     
  1027                           ;ECU_Layer/Char_LCD/ecu_char_LDC.c: 156:     {;ECU_Layer/Char_LCD/ecu_char_LDC.c: 157:  
      +                                 ret=((Std_RetrunType) 0x00);
  1028   001CC8  0E00               	movlw	0
  1029   001CCA  6E4C               	movwf	lcd_send_char_data_position@ret^0,c
  1030                           
  1031                           ;ECU_Layer/Char_LCD/ecu_char_LDC.c: 158:     }
  1032   001CCC  EF78  F00E         	goto	l3027
  1033   001CD0                     l3025:
  1034                           
  1035                           ;ECU_Layer/Char_LCD/ecu_char_LDC.c: 160:     {;ECU_Layer/Char_LCD/ecu_char_LDC.c: 161:  
      +                                 ret=lcd_set_cursor_position(lcd_obj,row,col);
  1036   001CD0  C048  F043         	movff	lcd_send_char_data_position@lcd_obj,lcd_set_cursor_position@lcd_obj
  1037   001CD4  C04A  F044         	movff	lcd_send_char_data_position@row,lcd_set_cursor_position@row
  1038   001CD8  C04B  F045         	movff	lcd_send_char_data_position@col,lcd_set_cursor_position@col
  1039   001CDC  ECB6  F00C         	call	_lcd_set_cursor_position	;wreg free
  1040   001CE0  6E4C               	movwf	lcd_send_char_data_position@ret^0,c
  1041                           
  1042                           ;ECU_Layer/Char_LCD/ecu_char_LDC.c: 162:         ret=lcd_send_char_data(lcd_obj,data);
  1043   001CE2  C048  F03F         	movff	lcd_send_char_data_position@lcd_obj,lcd_send_char_data@lcd_obj
  1044   001CE6  C049  F040         	movff	lcd_send_char_data_position@data,lcd_send_char_data@data
  1045   001CEA  ECFC  F00D         	call	_lcd_send_char_data	;wreg free
  1046   001CEE  6E4C               	movwf	lcd_send_char_data_position@ret^0,c
  1047   001CF0                     l3027:
  1048                           
  1049                           ;ECU_Layer/Char_LCD/ecu_char_LDC.c: 166:     return ret;
  1050   001CF0  504C               	movf	lcd_send_char_data_position@ret^0,w,c
  1051   001CF2  0012               	return		;funcret
  1052   001CF4                     __end_of_lcd_send_char_data_position:
  1053                           	callstack 0
  1054                           
  1055 ;; *************** function _lcd_set_cursor_position *****************
  1056 ;; Defined at:
  1057 ;;		line 227 in file "ECU_Layer/Char_LCD/ecu_char_LDC.c"
  1058 ;; Parameters:    Size  Location     Type
  1059 ;;  lcd_obj         1   18[COMRAM] PTR const struct .
  1060 ;;		 -> lcd_1(10), 
  1061 ;;  row             1   19[COMRAM] unsigned char 
  1062 ;;  col             1   20[COMRAM] unsigned char 
  1063 ;; Auto vars:     Size  Location     Type
  1064 ;;  ret             1    0        unsigned char 
  1065 ;; Return value:  Size  Location     Type
  1066 ;;                  1    wreg      unsigned char 
  1067 ;; Registers used:
  1068 ;;		wreg, fsr2l, fsr2h, status,2, status,0, prodl, prodh, cstack
  1069 ;; Tracked objects:
  1070 ;;		On entry : 0/0
  1071 ;;		On exit  : 0/0
  1072 ;;		Unchanged: 0/0
  1073 ;; Data sizes:     COMRAM   BANK0   BANK1   BANK2   BANK3   BANK4   BANK5   BANK6   BANK7   BANK8   BANK9  BANK10  BANK1
      +1  BANK12  BANK13  BANK14  BANK15
  1074 ;;      Params:         3       0       0       0       0       0       0       0       0       0       0       0       
      +0       0       0       0       0
  1075 ;;      Locals:         0       0       0       0       0       0       0       0       0       0       0       0       
      +0       0       0       0       0
  1076 ;;      Temps:          2       0       0       0       0       0       0       0       0       0       0       0       
      +0       0       0       0       0
  1077 ;;      Totals:         5       0       0       0       0       0       0       0       0       0       0       0       
      +0       0       0       0       0
  1078 ;;Total ram usage:        5 bytes
  1079 ;; Hardware stack levels used: 1
  1080 ;; Hardware stack levels required when called: 3
  1081 ;; This function calls:
  1082 ;;		_lcd_send_command
  1083 ;; This function is called by:
  1084 ;;		_lcd_send_char_data_position
  1085 ;;		_lcd_send_string_data_position
  1086 ;; This function uses a non-reentrant model
  1087 ;;
  1088                           
  1089                           	psect	text4
  1090   00196C                     __ptext4:
  1091                           	callstack 0
  1092   00196C                     _lcd_set_cursor_position:
  1093                           	callstack 26
  1094   00196C                     
  1095                           ;ECU_Layer/Char_LCD/ecu_char_LDC.c: 229:     if(((void*)0) == lcd_obj)
  1096   00196C  5043               	movf	lcd_set_cursor_position@lcd_obj^0,w,c
  1097   00196E  A4D8               	btfss	status,2,c
  1098   001970  EFBC  F00C         	goto	u1701
  1099   001974  EFBE  F00C         	goto	u1700
  1100   001978                     u1701:
  1101   001978  EFC0  F00C         	goto	l2963
  1102   00197C                     u1700:
  1103   00197C                     
  1104                           ;ECU_Layer/Char_LCD/ecu_char_LDC.c: 232:     }
  1105   00197C  EF04  F00D         	goto	l2977
  1106   001980                     l2963:
  1107                           
  1108                           ;ECU_Layer/Char_LCD/ecu_char_LDC.c: 234:     {;ECU_Layer/Char_LCD/ecu_char_LDC.c: 235:  
      +                                 col--;
  1109   001980  0645               	decf	lcd_set_cursor_position@col^0,f,c
  1110                           
  1111                           ;ECU_Layer/Char_LCD/ecu_char_LDC.c: 236:         switch(row)
  1112   001982  EFE7  F00C         	goto	l2975
  1113   001986                     l2965:
  1114   001986  C043  F03F         	movff	lcd_set_cursor_position@lcd_obj,lcd_send_command@lcd_obj
  1115   00198A  5045               	movf	lcd_set_cursor_position@col^0,w,c
  1116   00198C  0F80               	addlw	128
  1117   00198E  6E40               	movwf	lcd_send_command@cmd^0,c
  1118   001990  ECB7  F00D         	call	_lcd_send_command	;wreg free
  1119   001994  EF04  F00D         	goto	l2977
  1120   001998                     l2967:
  1121   001998  C043  F03F         	movff	lcd_set_cursor_position@lcd_obj,lcd_send_command@lcd_obj
  1122   00199C  5045               	movf	lcd_set_cursor_position@col^0,w,c
  1123   00199E  0FC0               	addlw	192
  1124   0019A0  6E40               	movwf	lcd_send_command@cmd^0,c
  1125   0019A2  ECB7  F00D         	call	_lcd_send_command	;wreg free
  1126   0019A6  EF04  F00D         	goto	l2977
  1127   0019AA                     l2969:
  1128   0019AA  C043  F03F         	movff	lcd_set_cursor_position@lcd_obj,lcd_send_command@lcd_obj
  1129   0019AE  5045               	movf	lcd_set_cursor_position@col^0,w,c
  1130   0019B0  0F94               	addlw	148
  1131   0019B2  6E40               	movwf	lcd_send_command@cmd^0,c
  1132   0019B4  ECB7  F00D         	call	_lcd_send_command	;wreg free
  1133   0019B8  EF04  F00D         	goto	l2977
  1134   0019BC                     l2971:
  1135   0019BC  C043  F03F         	movff	lcd_set_cursor_position@lcd_obj,lcd_send_command@lcd_obj
  1136   0019C0  5045               	movf	lcd_set_cursor_position@col^0,w,c
  1137   0019C2  0FD4               	addlw	212
  1138   0019C4  6E40               	movwf	lcd_send_command@cmd^0,c
  1139   0019C6  ECB7  F00D         	call	_lcd_send_command	;wreg free
  1140   0019CA  EF04  F00D         	goto	l2977
  1141   0019CE                     l2975:
  1142   0019CE  5044               	movf	lcd_set_cursor_position@row^0,w,c
  1143   0019D0  6E46               	movwf	??_lcd_set_cursor_position^0,c
  1144   0019D2  6A47               	clrf	(??_lcd_set_cursor_position+1)^0,c
  1145                           
  1146                           ; Switch on 2 bytes has been partitioned into a top level switch of size 1, and 1 sub-sw
      +                          itches
  1147                           ; Switch size 1, requested type "simple"
  1148                           ; Number of cases is 1, Range of values is 0 to 0
  1149                           ; switch strategies available:
  1150                           ; Name         Instructions Cycles
  1151                           ; simple_byte            4     3 (average)
  1152                           ;	Chosen strategy is simple_byte
  1153   0019D4  5047               	movf	(??_lcd_set_cursor_position+1)^0,w,c
  1154   0019D6  0A00               	xorlw	0	; case 0
  1155   0019D8  B4D8               	btfsc	status,2,c
  1156   0019DA  EFF1  F00C         	goto	l3383
  1157   0019DE  EF04  F00D         	goto	l2977
  1158   0019E2                     l3383:
  1159                           
  1160                           ; Switch size 1, requested type "simple"
  1161                           ; Number of cases is 4, Range of values is 1 to 4
  1162                           ; switch strategies available:
  1163                           ; Name         Instructions Cycles
  1164                           ; simple_byte           13     7 (average)
  1165                           ;	Chosen strategy is simple_byte
  1166   0019E2  5046               	movf	??_lcd_set_cursor_position^0,w,c
  1167   0019E4  0A01               	xorlw	1	; case 1
  1168   0019E6  B4D8               	btfsc	status,2,c
  1169   0019E8  EFC3  F00C         	goto	l2965
  1170   0019EC  0A03               	xorlw	3	; case 2
  1171   0019EE  B4D8               	btfsc	status,2,c
  1172   0019F0  EFCC  F00C         	goto	l2967
  1173   0019F4  0A01               	xorlw	1	; case 3
  1174   0019F6  B4D8               	btfsc	status,2,c
  1175   0019F8  EFD5  F00C         	goto	l2969
  1176   0019FC  0A07               	xorlw	7	; case 4
  1177   0019FE  B4D8               	btfsc	status,2,c
  1178   001A00  EFDE  F00C         	goto	l2971
  1179   001A04  EF04  F00D         	goto	l2977
  1180   001A08                     l2977:
  1181                           
  1182                           ;ECU_Layer/Char_LCD/ecu_char_LDC.c: 247:     return ret;
  1183   001A08  0E00               	movlw	0
  1184   001A0A  0012               	return		;funcret
  1185   001A0C                     __end_of_lcd_set_cursor_position:
  1186                           	callstack 0
  1187                           
  1188 ;; *************** function _lcd_send_char_data *****************
  1189 ;; Defined at:
  1190 ;;		line 117 in file "ECU_Layer/Char_LCD/ecu_char_LDC.c"
  1191 ;; Parameters:    Size  Location     Type
  1192 ;;  lcd_obj         1   14[COMRAM] PTR const struct .
  1193 ;;		 -> lcd_1(10), 
  1194 ;;  data            1   15[COMRAM] unsigned char 
  1195 ;; Auto vars:     Size  Location     Type
  1196 ;;  ret             1   16[COMRAM] unsigned char 
  1197 ;; Return value:  Size  Location     Type
  1198 ;;                  1    wreg      unsigned char 
  1199 ;; Registers used:
  1200 ;;		wreg, fsr2l, fsr2h, status,2, status,0, prodl, prodh, cstack
  1201 ;; Tracked objects:
  1202 ;;		On entry : 0/0
  1203 ;;		On exit  : 0/0
  1204 ;;		Unchanged: 0/0
  1205 ;; Data sizes:     COMRAM   BANK0   BANK1   BANK2   BANK3   BANK4   BANK5   BANK6   BANK7   BANK8   BANK9  BANK10  BANK1
      +1  BANK12  BANK13  BANK14  BANK15
  1206 ;;      Params:         2       0       0       0       0       0       0       0       0       0       0       0       
      +0       0       0       0       0
  1207 ;;      Locals:         1       0       0       0       0       0       0       0       0       0       0       0       
      +0       0       0       0       0
  1208 ;;      Temps:          0       0       0       0       0       0       0       0       0       0       0       0       
      +0       0       0       0       0
  1209 ;;      Totals:         3       0       0       0       0       0       0       0       0       0       0       0       
      +0       0       0       0       0
  1210 ;;Total ram usage:        3 bytes
  1211 ;; Hardware stack levels used: 1
  1212 ;; Hardware stack levels required when called: 2
  1213 ;; This function calls:
  1214 ;;		_gpio_pin_write
  1215 ;;		_lcd_send_bits
  1216 ;;		_lcd_send_enable_signal
  1217 ;; This function is called by:
  1218 ;;		_lcd_send_char_data_position
  1219 ;;		_lcd_send_string_data
  1220 ;;		_lcd_send_custom_char
  1221 ;; This function uses a non-reentrant model
  1222 ;;
  1223                           
  1224                           	psect	text5
  1225   001BF8                     __ptext5:
  1226                           	callstack 0
  1227   001BF8                     _lcd_send_char_data:
  1228                           	callstack 26
  1229   001BF8                     
  1230                           ;ECU_Layer/Char_LCD/ecu_char_LDC.c: 119:     if(((void*)0) == lcd_obj)
  1231   001BF8  503F               	movf	lcd_send_char_data@lcd_obj^0,w,c
  1232   001BFA  A4D8               	btfss	status,2,c
  1233   001BFC  EF02  F00E         	goto	u1611
  1234   001C00  EF04  F00E         	goto	u1610
  1235   001C04                     u1611:
  1236   001C04  EF08  F00E         	goto	l2901
  1237   001C08                     u1610:
  1238   001C08                     
  1239                           ;ECU_Layer/Char_LCD/ecu_char_LDC.c: 120:     {;ECU_Layer/Char_LCD/ecu_char_LDC.c: 121:  
      +                                 ret=((Std_RetrunType) 0x00);
  1240   001C08  0E00               	movlw	0
  1241   001C0A  6E41               	movwf	lcd_send_char_data@ret^0,c
  1242                           
  1243                           ;ECU_Layer/Char_LCD/ecu_char_LDC.c: 122:     }
  1244   001C0C  EF1B  F00E         	goto	l2903
  1245   001C10                     l2901:
  1246                           
  1247                           ;ECU_Layer/Char_LCD/ecu_char_LDC.c: 124:     {;ECU_Layer/Char_LCD/ecu_char_LDC.c: 135:  
      +                                     ret=gpio_pin_write(&(lcd_obj->rs_pin),GPIO_STATE_HIGH);
  1248   001C10  C03F  F031         	movff	lcd_send_char_data@lcd_obj,gpio_pin_write@pin_confg
  1249   001C14  0E01               	movlw	1
  1250   001C16  6E32               	movwf	gpio_pin_write@pin_state^0,c
  1251   001C18  EC93  F009         	call	_gpio_pin_write	;wreg free
  1252   001C1C  6E41               	movwf	lcd_send_char_data@ret^0,c
  1253                           
  1254                           ;ECU_Layer/Char_LCD/ecu_char_LDC.c: 136:             ret=lcd_send_bits(lcd_obj,data);
  1255   001C1E  C03F  F039         	movff	lcd_send_char_data@lcd_obj,lcd_send_bits@lcd_obj
  1256   001C22  C040  F03A         	movff	lcd_send_char_data@data,lcd_send_bits@data_cmd
  1257   001C26  EC92  F00D         	call	_lcd_send_bits	;wreg free
  1258   001C2A  6E41               	movwf	lcd_send_char_data@ret^0,c
  1259                           
  1260                           ;ECU_Layer/Char_LCD/ecu_char_LDC.c: 137:             ret=lcd_send_enable_signal(lcd_obj)
      +                          ;
  1261   001C2C  C03F  F039         	movff	lcd_send_char_data@lcd_obj,lcd_send_enable_signal@lcd_obj
  1262   001C30  ECFB  F00E         	call	_lcd_send_enable_signal	;wreg free
  1263   001C34  6E41               	movwf	lcd_send_char_data@ret^0,c
  1264   001C36                     l2903:
  1265                           
  1266                           ;ECU_Layer/Char_LCD/ecu_char_LDC.c: 141:     return ret;
  1267   001C36  5041               	movf	lcd_send_char_data@ret^0,w,c
  1268   001C38  0012               	return		;funcret
  1269   001C3A                     __end_of_lcd_send_char_data:
  1270                           	callstack 0
  1271                           
  1272 ;; *************** function _keypad_get_key_pressed *****************
  1273 ;; Defined at:
  1274 ;;		line 59 in file "ECU_Layer/KeyPad/ecu_keypad.c"
  1275 ;; Parameters:    Size  Location     Type
  1276 ;;  keypad_obj      1    8[COMRAM] PTR const struct .
  1277 ;;		 -> keypad_1(8), 
  1278 ;;  value           1    9[COMRAM] PTR unsigned char 
  1279 ;;		 -> key(1), 
  1280 ;; Auto vars:     Size  Location     Type
  1281 ;;  l_column_cou    1   15[COMRAM] unsigned char 
  1282 ;;  l_row_count     1   14[COMRAM] unsigned char 
  1283 ;;  l_count         1   13[COMRAM] unsigned char 
  1284 ;;  col_pin_stat    1   12[COMRAM] unsigned char 
  1285 ;;  ret             1    0        unsigned char 
  1286 ;;  num             1   11[COMRAM] unsigned char 
  1287 ;; Return value:  Size  Location     Type
  1288 ;;                  1    wreg      unsigned char 
  1289 ;; Registers used:
  1290 ;;		wreg, fsr1l, fsr1h, fsr2l, fsr2h, status,2, status,0, tblptrl, tblptrh, tblptru, prodl, prodh, cstack
  1291 ;; Tracked objects:
  1292 ;;		On entry : 0/0
  1293 ;;		On exit  : 0/0
  1294 ;;		Unchanged: 0/0
  1295 ;; Data sizes:     COMRAM   BANK0   BANK1   BANK2   BANK3   BANK4   BANK5   BANK6   BANK7   BANK8   BANK9  BANK10  BANK1
      +1  BANK12  BANK13  BANK14  BANK15
  1296 ;;      Params:         2       0       0       0       0       0       0       0       0       0       0       0       
      +0       0       0       0       0
  1297 ;;      Locals:         5       0       0       0       0       0       0       0       0       0       0       0       
      +0       0       0       0       0
  1298 ;;      Temps:          1       0       0       0       0       0       0       0       0       0       0       0       
      +0       0       0       0       0
  1299 ;;      Totals:         8       0       0       0       0       0       0       0       0       0       0       0       
      +0       0       0       0       0
  1300 ;;Total ram usage:        8 bytes
  1301 ;; Hardware stack levels used: 1
  1302 ;; Hardware stack levels required when called: 1
  1303 ;; This function calls:
  1304 ;;		_gpio_pin_read
  1305 ;;		_gpio_pin_write
  1306 ;; This function is called by:
  1307 ;;		_main
  1308 ;; This function uses a non-reentrant model
  1309 ;;
  1310                           
  1311                           	psect	text6
  1312   001436                     __ptext6:
  1313                           	callstack 0
  1314   001436                     _keypad_get_key_pressed:
  1315                           	callstack 29
  1316   001436                     
  1317                           ;ECU_Layer/KeyPad/ecu_keypad.c: 61:      uint8 l_row_count=0,l_column_count=0,l_count=0;
  1318   001436  0E00               	movlw	0
  1319   001438  6E3F               	movwf	keypad_get_key_pressed@l_row_count^0,c
  1320   00143A  0E00               	movlw	0
  1321   00143C  6E40               	movwf	keypad_get_key_pressed@l_column_count^0,c
  1322   00143E  0E00               	movlw	0
  1323   001440  6E3E               	movwf	keypad_get_key_pressed@l_count^0,c
  1324                           
  1325                           ;ECU_Layer/KeyPad/ecu_keypad.c: 62:      uint8 col_pin_state=0;
  1326   001442  0E00               	movlw	0
  1327   001444  6E3D               	movwf	keypad_get_key_pressed@col_pin_state^0,c
  1328                           
  1329                           ;ECU_Layer/KeyPad/ecu_keypad.c: 63:      uint8 num=0;
  1330   001446  0E00               	movlw	0
  1331   001448  6E3C               	movwf	keypad_get_key_pressed@num^0,c
  1332                           
  1333                           ;ECU_Layer/KeyPad/ecu_keypad.c: 64:     if((((void*)0) == keypad_obj) || (value == ((voi
      +                          d*)0)))
  1334   00144A  5039               	movf	keypad_get_key_pressed@keypad_obj^0,w,c
  1335   00144C  B4D8               	btfsc	status,2,c
  1336   00144E  EF2B  F00A         	goto	u1771
  1337   001452  EF2D  F00A         	goto	u1770
  1338   001456                     u1771:
  1339   001456  EF35  F00A         	goto	l3061
  1340   00145A                     u1770:
  1341   00145A  503A               	movf	keypad_get_key_pressed@value^0,w,c
  1342   00145C  A4D8               	btfss	status,2,c
  1343   00145E  EF33  F00A         	goto	u1781
  1344   001462  EF35  F00A         	goto	u1780
  1345   001466                     u1781:
  1346   001466  EF37  F00A         	goto	l3063
  1347   00146A                     u1780:
  1348   00146A                     l3061:
  1349                           
  1350                           ;ECU_Layer/KeyPad/ecu_keypad.c: 67:     }
  1351   00146A  EF8E  F00A         	goto	l375
  1352   00146E                     l3063:
  1353                           
  1354                           ;ECU_Layer/KeyPad/ecu_keypad.c: 69:     {;ECU_Layer/KeyPad/ecu_keypad.c: 71:         for
      +                          (l_row_count=0;l_row_count<4;l_row_count++)
  1355   00146E  0E00               	movlw	0
  1356   001470  6E3F               	movwf	keypad_get_key_pressed@l_row_count^0,c
  1357   001472                     l3069:
  1358                           
  1359                           ;ECU_Layer/KeyPad/ecu_keypad.c: 72:         {;ECU_Layer/KeyPad/ecu_keypad.c: 73:        
      +                               for(l_count=0;l_count<4;l_count++)
  1360   001472  0E00               	movlw	0
  1361   001474  6E3E               	movwf	keypad_get_key_pressed@l_count^0,c
  1362   001476                     l3075:
  1363   001476  5039               	movf	keypad_get_key_pressed@keypad_obj^0,w,c
  1364   001478  243E               	addwf	keypad_get_key_pressed@l_count^0,w,c
  1365   00147A  6E31               	movwf	gpio_pin_write@pin_confg^0,c
  1366   00147C  0E00               	movlw	0
  1367   00147E  6E32               	movwf	gpio_pin_write@pin_state^0,c
  1368   001480  EC93  F009         	call	_gpio_pin_write	;wreg free
  1369   001484                     
  1370                           ;ECU_Layer/KeyPad/ecu_keypad.c: 76:             }
  1371   001484  2A3E               	incf	keypad_get_key_pressed@l_count^0,f,c
  1372   001486  0E03               	movlw	3
  1373   001488  643E               	cpfsgt	keypad_get_key_pressed@l_count^0,c
  1374   00148A  EF49  F00A         	goto	u1791
  1375   00148E  EF4B  F00A         	goto	u1790
  1376   001492                     u1791:
  1377   001492  EF3B  F00A         	goto	l3075
  1378   001496                     u1790:
  1379   001496  5039               	movf	keypad_get_key_pressed@keypad_obj^0,w,c
  1380   001498  243F               	addwf	keypad_get_key_pressed@l_row_count^0,w,c
  1381   00149A  6E31               	movwf	gpio_pin_write@pin_confg^0,c
  1382   00149C  0E01               	movlw	1
  1383   00149E  6E32               	movwf	gpio_pin_write@pin_state^0,c
  1384   0014A0  EC93  F009         	call	_gpio_pin_write	;wreg free
  1385   0014A4                     
  1386                           ;ECU_Layer/KeyPad/ecu_keypad.c: 78:            _delay((unsigned long)((50)*(8000000/4000
      +                          .0)));
  1387   0014A4  0E82               	movlw	130
  1388   0014A6  6E3B               	movwf	??_keypad_get_key_pressed^0,c
  1389   0014A8  0EDE               	movlw	222
  1390   0014AA                     u2117:
  1391   0014AA  2EE8               	decfsz	wreg,f,c
  1392   0014AC  D7FE               	bra	u2117
  1393   0014AE  2E3B               	decfsz	??_keypad_get_key_pressed^0,f,c
  1394   0014B0  D7FC               	bra	u2117
  1395   0014B2                     
  1396                           ;ECU_Layer/KeyPad/ecu_keypad.c: 79:            for(l_column_count=0;l_column_count<4;l_c
      +                          olumn_count++)
  1397   0014B2  0E00               	movlw	0
  1398   0014B4  6E40               	movwf	keypad_get_key_pressed@l_column_count^0,c
  1399   0014B6                     l3091:
  1400   0014B6  5039               	movf	keypad_get_key_pressed@keypad_obj^0,w,c
  1401   0014B8  2440               	addwf	keypad_get_key_pressed@l_column_count^0,w,c
  1402   0014BA  0F04               	addlw	4
  1403   0014BC  6E31               	movwf	gpio_pin_read@pin_confg^0,c
  1404   0014BE  0E3D               	movlw	low keypad_get_key_pressed@col_pin_state
  1405   0014C0  6E32               	movwf	gpio_pin_read@pin_state^0,c
  1406   0014C2  EC64  F00C         	call	_gpio_pin_read	;wreg free
  1407   0014C6                     
  1408                           ;ECU_Layer/KeyPad/ecu_keypad.c: 82:                  if(col_pin_state == GPIO_STATE_HIGH
      +                          )
  1409   0014C6  043D               	decf	keypad_get_key_pressed@col_pin_state^0,w,c
  1410   0014C8  A4D8               	btfss	status,2,c
  1411   0014CA  EF69  F00A         	goto	u1801
  1412   0014CE  EF6B  F00A         	goto	u1800
  1413   0014D2                     u1801:
  1414   0014D2  EF7C  F00A         	goto	l3099
  1415   0014D6                     u1800:
  1416   0014D6                     
  1417                           ;ECU_Layer/KeyPad/ecu_keypad.c: 83:                  {;ECU_Layer/KeyPad/ecu_keypad.c: 84
      +                          :                      *value=keypad_buttons[l_row_count][l_column_count];
  1418   0014D6  503F               	movf	keypad_get_key_pressed@l_row_count^0,w,c
  1419   0014D8  0D04               	mullw	4
  1420   0014DA  50F3               	movf	243,w,c
  1421   0014DC  0F01               	addlw	low _keypad_buttons
  1422   0014DE  2440               	addwf	keypad_get_key_pressed@l_column_count^0,w,c
  1423   0014E0  6E3B               	movwf	??_keypad_get_key_pressed^0,c
  1424   0014E2  C03B  FFF6         	movff	??_keypad_get_key_pressed,tblptrl
  1425   0014E6                     	if	1	;There is more than 1 active tblptr byte
  1426   0014E6  0E10               	movlw	high __smallconst
  1427   0014E8  6EF7               	movwf	tblptrh,c
  1428   0014EA                     	endif
  1429   0014EA                     	if	1	;Program memory is < 0x10000, tblptru is always zero
  1430   0014EA  6AF8               	clrf	tblptru,c
  1431   0014EC                     	endif
  1432   0014EC                     	if	0	;tblptru may be non-zero
  1433   0014EC                     	endif
  1434   0014EC  503A               	movf	keypad_get_key_pressed@value^0,w,c
  1435   0014EE  6ED9               	movwf	fsr2l,c
  1436   0014F0  6ADA               	clrf	fsr2h,c
  1437   0014F2  0008               	tblrd		*
  1438   0014F4  CFF5 FFDF          	movff	tablat,indf2
  1439   0014F8                     l3099:
  1440                           
  1441                           ;ECU_Layer/KeyPad/ecu_keypad.c: 87:             }
  1442   0014F8  2A40               	incf	keypad_get_key_pressed@l_column_count^0,f,c
  1443   0014FA  0E03               	movlw	3
  1444   0014FC  6440               	cpfsgt	keypad_get_key_pressed@l_column_count^0,c
  1445   0014FE  EF83  F00A         	goto	u1811
  1446   001502  EF85  F00A         	goto	u1810
  1447   001506                     u1811:
  1448   001506  EF5B  F00A         	goto	l3091
  1449   00150A                     u1810:
  1450   00150A                     
  1451                           ;ECU_Layer/KeyPad/ecu_keypad.c: 88:         }
  1452   00150A  2A3F               	incf	keypad_get_key_pressed@l_row_count^0,f,c
  1453   00150C  0E03               	movlw	3
  1454   00150E  643F               	cpfsgt	keypad_get_key_pressed@l_row_count^0,c
  1455   001510  EF8C  F00A         	goto	u1821
  1456   001514  EF8E  F00A         	goto	u1820
  1457   001518                     u1821:
  1458   001518  EF39  F00A         	goto	l3069
  1459   00151C                     u1820:
  1460   00151C                     l375:
  1461   00151C  0012               	return		;funcret
  1462   00151E                     __end_of_keypad_get_key_pressed:
  1463                           	callstack 0
  1464                           
  1465 ;; *************** function _gpio_pin_read *****************
  1466 ;; Defined at:
  1467 ;;		line 119 in file "MCAL_Layer/GPIO/hal_gpio.c"
  1468 ;; Parameters:    Size  Location     Type
  1469 ;;  pin_confg       1    0[COMRAM] PTR const struct .
  1470 ;;		 -> keypad_1$keypad_columns_pins(4), keypad_1(8), 
  1471 ;;  pin_state       1    1[COMRAM] PTR enum E2982
  1472 ;;		 -> keypad_get_key_pressed@col_pin_state(1), button_read_state@pin_state(1), 
  1473 ;; Auto vars:     Size  Location     Type
  1474 ;;  ret             1    6[COMRAM] unsigned char 
  1475 ;; Return value:  Size  Location     Type
  1476 ;;                  1    wreg      unsigned char 
  1477 ;; Registers used:
  1478 ;;		wreg, fsr1l, fsr1h, fsr2l, fsr2h, status,2, status,0, prodl, prodh
  1479 ;; Tracked objects:
  1480 ;;		On entry : 0/0
  1481 ;;		On exit  : 0/0
  1482 ;;		Unchanged: 0/0
  1483 ;; Data sizes:     COMRAM   BANK0   BANK1   BANK2   BANK3   BANK4   BANK5   BANK6   BANK7   BANK8   BANK9  BANK10  BANK1
      +1  BANK12  BANK13  BANK14  BANK15
  1484 ;;      Params:         2       0       0       0       0       0       0       0       0       0       0       0       
      +0       0       0       0       0
  1485 ;;      Locals:         1       0       0       0       0       0       0       0       0       0       0       0       
      +0       0       0       0       0
  1486 ;;      Temps:          4       0       0       0       0       0       0       0       0       0       0       0       
      +0       0       0       0       0
  1487 ;;      Totals:         7       0       0       0       0       0       0       0       0       0       0       0       
      +0       0       0       0       0
  1488 ;;Total ram usage:        7 bytes
  1489 ;; Hardware stack levels used: 1
  1490 ;; This function calls:
  1491 ;;		Nothing
  1492 ;; This function is called by:
  1493 ;;		_keypad_get_key_pressed
  1494 ;;		_button_read_state
  1495 ;; This function uses a non-reentrant model
  1496 ;;
  1497                           
  1498                           	psect	text7
  1499   0018C8                     __ptext7:
  1500                           	callstack 0
  1501   0018C8                     _gpio_pin_read:
  1502                           	callstack 29
  1503   0018C8                     
  1504                           ;MCAL_Layer/GPIO/hal_gpio.c: 120:     Std_RetrunType ret = ((Std_RetrunType) 0x01);
  1505   0018C8  0E01               	movlw	1
  1506   0018CA  6E37               	movwf	gpio_pin_read@ret^0,c
  1507                           
  1508                           ;MCAL_Layer/GPIO/hal_gpio.c: 121:        if(pin_confg == ((void*)0) ||pin_state ==((void
      +                          *)0) ||(pin_confg->pin > 8 -1))
  1509   0018CC  5031               	movf	gpio_pin_read@pin_confg^0,w,c
  1510   0018CE  B4D8               	btfsc	status,2,c
  1511   0018D0  EF6C  F00C         	goto	u1661
  1512   0018D4  EF6E  F00C         	goto	u1660
  1513   0018D8                     u1661:
  1514   0018D8  EF86  F00C         	goto	l2951
  1515   0018DC                     u1660:
  1516   0018DC  5032               	movf	gpio_pin_read@pin_state^0,w,c
  1517   0018DE  B4D8               	btfsc	status,2,c
  1518   0018E0  EF74  F00C         	goto	u1671
  1519   0018E4  EF76  F00C         	goto	u1670
  1520   0018E8                     u1671:
  1521   0018E8  EF86  F00C         	goto	l2951
  1522   0018EC                     u1670:
  1523   0018EC  5031               	movf	gpio_pin_read@pin_confg^0,w,c
  1524   0018EE  6ED9               	movwf	fsr2l,c
  1525   0018F0  6ADA               	clrf	fsr2h,c
  1526   0018F2  30DF               	rrcf	223,w,c
  1527   0018F4  32E8               	rrcf	wreg,f,c
  1528   0018F6  32E8               	rrcf	wreg,f,c
  1529   0018F8  0B07               	andlw	7
  1530   0018FA  6E33               	movwf	??_gpio_pin_read^0,c
  1531   0018FC  0E07               	movlw	7
  1532   0018FE  6433               	cpfsgt	??_gpio_pin_read^0,c
  1533   001900  EF84  F00C         	goto	u1681
  1534   001904  EF86  F00C         	goto	u1680
  1535   001908                     u1681:
  1536   001908  EF8A  F00C         	goto	l2953
  1537   00190C                     u1680:
  1538   00190C                     l2951:
  1539                           
  1540                           ;MCAL_Layer/GPIO/hal_gpio.c: 122:     {;MCAL_Layer/GPIO/hal_gpio.c: 123:         ret=((S
      +                          td_RetrunType) 0x00);
  1541   00190C  0E00               	movlw	0
  1542   00190E  6E37               	movwf	gpio_pin_read@ret^0,c
  1543                           
  1544                           ;MCAL_Layer/GPIO/hal_gpio.c: 124:     }
  1545   001910  EFB4  F00C         	goto	l2955
  1546   001914                     l2953:
  1547                           
  1548                           ;MCAL_Layer/GPIO/hal_gpio.c: 126:     {;MCAL_Layer/GPIO/hal_gpio.c: 127:            *pin
      +                          _state=((*port_reg[pin_confg->port]>>pin_confg->pin) & (uint8) 1);
  1549   001914  5032               	movf	gpio_pin_read@pin_state^0,w,c
  1550   001916  6ED9               	movwf	fsr2l,c
  1551   001918  6ADA               	clrf	fsr2h,c
  1552   00191A  5031               	movf	gpio_pin_read@pin_confg^0,w,c
  1553   00191C  6EE1               	movwf	fsr1l,c
  1554   00191E  6AE2               	clrf	fsr1h,c
  1555   001920  30E7               	rrcf	231,w,c
  1556   001922  32E8               	rrcf	wreg,f,c
  1557   001924  32E8               	rrcf	wreg,f,c
  1558   001926  0B07               	andlw	7
  1559   001928  6E33               	movwf	??_gpio_pin_read^0,c
  1560   00192A  5031               	movf	gpio_pin_read@pin_confg^0,w,c
  1561   00192C  6EE1               	movwf	fsr1l,c
  1562   00192E  6AE2               	clrf	fsr1h,c
  1563   001930  50E7               	movf	231,w,c
  1564   001932  0B07               	andlw	7
  1565   001934  0D02               	mullw	2
  1566   001936  50F3               	movf	243,w,c
  1567   001938  0F01               	addlw	low _port_reg
  1568   00193A  6EE1               	movwf	fsr1l,c
  1569   00193C  6AE2               	clrf	fsr1h,c
  1570   00193E  CFE6 F034          	movff	postinc1,??_gpio_pin_read+1
  1571   001942  CFE5 F035          	movff	postdec1,??_gpio_pin_read+2
  1572   001946  C034  FFE1         	movff	??_gpio_pin_read+1,fsr1l
  1573   00194A  C035  FFE2         	movff	??_gpio_pin_read+2,fsr1h
  1574   00194E  50E7               	movf	indf1,w,c
  1575   001950  6E36               	movwf	(??_gpio_pin_read+3)^0,c
  1576   001952  2A33               	incf	??_gpio_pin_read^0,f,c
  1577   001954  EFAE  F00C         	goto	u1694
  1578   001958                     u1695:
  1579   001958  90D8               	bcf	status,0,c
  1580   00195A  3236               	rrcf	(??_gpio_pin_read+3)^0,f,c
  1581   00195C                     u1694:
  1582   00195C  2E33               	decfsz	??_gpio_pin_read^0,f,c
  1583   00195E  EFAC  F00C         	goto	u1695
  1584   001962  5036               	movf	(??_gpio_pin_read+3)^0,w,c
  1585   001964  0B01               	andlw	1
  1586   001966  6EDF               	movwf	indf2,c
  1587   001968                     l2955:
  1588                           
  1589                           ;MCAL_Layer/GPIO/hal_gpio.c: 131:     return ret;
  1590   001968  5037               	movf	gpio_pin_read@ret^0,w,c
  1591   00196A  0012               	return		;funcret
  1592   00196C                     __end_of_gpio_pin_read:
  1593                           	callstack 0
  1594                           
  1595 ;; *************** function _convert_uint8_to_string *****************
  1596 ;; Defined at:
  1597 ;;		line 340 in file "ECU_Layer/Char_LCD/ecu_char_LDC.c"
  1598 ;; Parameters:    Size  Location     Type
  1599 ;;  value           1    wreg     unsigned char 
  1600 ;;  str             1   42[COMRAM] PTR unsigned char 
  1601 ;;		 -> str(1), 
  1602 ;; Auto vars:     Size  Location     Type
  1603 ;;  value           1   43[COMRAM] unsigned char 
  1604 ;;  ret             1    0        unsigned char 
  1605 ;; Return value:  Size  Location     Type
  1606 ;;                  1    wreg      unsigned char 
  1607 ;; Registers used:
  1608 ;;		wreg, fsr1l, fsr1h, fsr2l, fsr2h, status,2, status,0, tblptrl, tblptrh, tblptru, cstack
  1609 ;; Tracked objects:
  1610 ;;		On entry : 0/0
  1611 ;;		On exit  : 0/0
  1612 ;;		Unchanged: 0/0
  1613 ;; Data sizes:     COMRAM   BANK0   BANK1   BANK2   BANK3   BANK4   BANK5   BANK6   BANK7   BANK8   BANK9  BANK10  BANK1
      +1  BANK12  BANK13  BANK14  BANK15
  1614 ;;      Params:         1       0       0       0       0       0       0       0       0       0       0       0       
      +0       0       0       0       0
  1615 ;;      Locals:         1       0       0       0       0       0       0       0       0       0       0       0       
      +0       0       0       0       0
  1616 ;;      Temps:          0       0       0       0       0       0       0       0       0       0       0       0       
      +0       0       0       0       0
  1617 ;;      Totals:         2       0       0       0       0       0       0       0       0       0       0       0       
      +0       0       0       0       0
  1618 ;;Total ram usage:        2 bytes
  1619 ;; Hardware stack levels used: 1
  1620 ;; Hardware stack levels required when called: 5
  1621 ;; This function calls:
  1622 ;;		_memset
  1623 ;;		_sprintf
  1624 ;; This function is called by:
  1625 ;;		_main
  1626 ;; This function uses a non-reentrant model
  1627 ;;
  1628                           
  1629                           	psect	text8
  1630   001BB4                     __ptext8:
  1631                           	callstack 0
  1632   001BB4                     _convert_uint8_to_string:
  1633                           	callstack 25
  1634                           
  1635                           ;incstack = 0
  1636                           ;convert_uint8_to_string@value stored from wreg
  1637   001BB4  6E5C               	movwf	convert_uint8_to_string@value^0,c
  1638   001BB6                     
  1639                           ;ECU_Layer/Char_LCD/ecu_char_LDC.c: 342:     if(((void*)0) == str)
  1640   001BB6  505B               	movf	convert_uint8_to_string@str^0,w,c
  1641   001BB8  A4D8               	btfss	status,2,c
  1642   001BBA  EFE1  F00D         	goto	u1761
  1643   001BBE  EFE3  F00D         	goto	u1760
  1644   001BC2                     u1761:
  1645   001BC2  EFE5  F00D         	goto	l3049
  1646   001BC6                     u1760:
  1647   001BC6                     
  1648                           ;ECU_Layer/Char_LCD/ecu_char_LDC.c: 345:     }
  1649   001BC6  EFFA  F00D         	goto	l3053
  1650   001BCA                     l3049:
  1651                           
  1652                           ;ECU_Layer/Char_LCD/ecu_char_LDC.c: 347:     {;ECU_Layer/Char_LCD/ecu_char_LDC.c: 348:  
      +                                 memset(str,'\0',4);
  1653   001BCA  C05B  F031         	movff	convert_uint8_to_string@str,memset@dest
  1654   001BCE  0E00               	movlw	0
  1655   001BD0  6E33               	movwf	(memset@c+1)^0,c
  1656   001BD2  0E00               	movlw	0
  1657   001BD4  6E32               	movwf	memset@c^0,c
  1658   001BD6  0E00               	movlw	0
  1659   001BD8  6E35               	movwf	(memset@n+1)^0,c
  1660   001BDA  0E04               	movlw	4
  1661   001BDC  6E34               	movwf	memset@n^0,c
  1662   001BDE  ECE3  F00E         	call	_memset	;wreg free
  1663   001BE2                     
  1664                           ;ECU_Layer/Char_LCD/ecu_char_LDC.c: 349:         sprintf(str,"%i",value);
  1665   001BE2  C05B  F04A         	movff	convert_uint8_to_string@str,sprintf@s
  1666   001BE6  0E3C               	movlw	low STR_1
  1667   001BE8  6E4B               	movwf	sprintf@fmt^0,c
  1668   001BEA  C05C  F04C         	movff	convert_uint8_to_string@value,?_sprintf+2
  1669   001BEE  6A4D               	clrf	(?_sprintf+3)^0,c
  1670   001BF0  EC97  F00E         	call	_sprintf	;wreg free
  1671   001BF4                     l3053:
  1672                           
  1673                           ;ECU_Layer/Char_LCD/ecu_char_LDC.c: 352:     return ret;
  1674   001BF4  0E00               	movlw	0
  1675   001BF6  0012               	return		;funcret
  1676   001BF8                     __end_of_convert_uint8_to_string:
  1677                           	callstack 0
  1678                           
  1679 ;; *************** function _sprintf *****************
  1680 ;; Defined at:
  1681 ;;		line 9 in file "C:\Program Files\Microchip\xc8\v2.45\pic\sources\c99\common\nf_sprintf.c"
  1682 ;; Parameters:    Size  Location     Type
  1683 ;;  s               1   25[COMRAM] PTR unsigned char 
  1684 ;;		 -> str(1), 
  1685 ;;  fmt             1   26[COMRAM] PTR const unsigned char 
  1686 ;;		 -> STR_3(3), STR_2(3), STR_1(3), 
  1687 ;; Auto vars:     Size  Location     Type
  1688 ;;  f              12   30[COMRAM] struct _IO_FILE
  1689 ;;  ret             2    0        int 
  1690 ;;  ap              1   29[COMRAM] PTR void [1]
  1691 ;;		 -> ?_sprintf(2), 
  1692 ;; Return value:  Size  Location     Type
  1693 ;;                  2   25[COMRAM] int 
  1694 ;; Registers used:
  1695 ;;		wreg, fsr1l, fsr1h, fsr2l, fsr2h, status,2, status,0, tblptrl, tblptrh, tblptru, cstack
  1696 ;; Tracked objects:
  1697 ;;		On entry : 0/0
  1698 ;;		On exit  : 0/0
  1699 ;;		Unchanged: 0/0
  1700 ;; Data sizes:     COMRAM   BANK0   BANK1   BANK2   BANK3   BANK4   BANK5   BANK6   BANK7   BANK8   BANK9  BANK10  BANK1
      +1  BANK12  BANK13  BANK14  BANK15
  1701 ;;      Params:         4       0       0       0       0       0       0       0       0       0       0       0       
      +0       0       0       0       0
  1702 ;;      Locals:        13       0       0       0       0       0       0       0       0       0       0       0       
      +0       0       0       0       0
  1703 ;;      Temps:          0       0       0       0       0       0       0       0       0       0       0       0       
      +0       0       0       0       0
  1704 ;;      Totals:        17       0       0       0       0       0       0       0       0       0       0       0       
      +0       0       0       0       0
  1705 ;;Total ram usage:       17 bytes
  1706 ;; Hardware stack levels used: 1
  1707 ;; Hardware stack levels required when called: 4
  1708 ;; This function calls:
  1709 ;;		_vfprintf
  1710 ;; This function is called by:
  1711 ;;		_convert_uint8_to_string
  1712 ;;		_convert_uint16_to_string
  1713 ;;		_convert_uint32_to_string
  1714 ;; This function uses a non-reentrant model
  1715 ;;
  1716                           
  1717                           	psect	text9
  1718   001D2E                     __ptext9:
  1719                           	callstack 0
  1720   001D2E                     _sprintf:
  1721                           	callstack 25
  1722   001D2E  0E4C               	movlw	low (?_sprintf+2)
  1723   001D30  6E4E               	movwf	sprintf@ap^0,c
  1724   001D32  C04A  F04F         	movff	sprintf@s,sprintf@f
  1725   001D36  0E00               	movlw	0
  1726   001D38  6E53               	movwf	(sprintf@f+4)^0,c
  1727   001D3A  0E00               	movlw	0
  1728   001D3C  6E52               	movwf	(sprintf@f+3)^0,c
  1729   001D3E  0E00               	movlw	0
  1730   001D40  6E5A               	movwf	(sprintf@f+11)^0,c
  1731   001D42  0E00               	movlw	0
  1732   001D44  6E59               	movwf	(sprintf@f+10)^0,c
  1733   001D46  0E4F               	movlw	low sprintf@f
  1734   001D48  6E46               	movwf	vfprintf@fp^0,c
  1735   001D4A  C04B  F047         	movff	sprintf@fmt,vfprintf@fmt
  1736   001D4E  0E4E               	movlw	low sprintf@ap
  1737   001D50  6E48               	movwf	vfprintf@ap^0,c
  1738   001D52  EC1D  F00E         	call	_vfprintf	;wreg free
  1739   001D56  504A               	movf	sprintf@s^0,w,c
  1740   001D58  2452               	addwf	(sprintf@f+3)^0,w,c
  1741   001D5A  6ED9               	movwf	fsr2l,c
  1742   001D5C  6ADA               	clrf	fsr2h,c
  1743   001D5E  6ADF               	clrf	indf2,c
  1744   001D60  0012               	return		;funcret
  1745   001D62                     __end_of_sprintf:
  1746                           	callstack 0
  1747                           
  1748 ;; *************** function _vfprintf *****************
  1749 ;; Defined at:
  1750 ;;		line 1817 in file "C:\Program Files\Microchip\xc8\v2.45\pic\sources\c99\common\doprnt.c"
  1751 ;; Parameters:    Size  Location     Type
  1752 ;;  fp              1   21[COMRAM] PTR struct _IO_FILE
  1753 ;;		 -> sprintf@f(12), 
  1754 ;;  fmt             1   22[COMRAM] PTR const unsigned char 
  1755 ;;		 -> STR_3(3), STR_2(3), STR_1(3), 
  1756 ;;  ap              1   23[COMRAM] PTR PTR void 
  1757 ;;		 -> sprintf@ap(1), 
  1758 ;; Auto vars:     Size  Location     Type
  1759 ;;  cfmt            1   24[COMRAM] PTR unsigned char 
  1760 ;;		 -> STR_3(3), STR_2(3), STR_1(3), 
  1761 ;; Return value:  Size  Location     Type
  1762 ;;                  2   21[COMRAM] int 
  1763 ;; Registers used:
  1764 ;;		wreg, fsr1l, fsr1h, fsr2l, fsr2h, status,2, status,0, tblptrl, tblptrh, tblptru, cstack
  1765 ;; Tracked objects:
  1766 ;;		On entry : 0/0
  1767 ;;		On exit  : 0/0
  1768 ;;		Unchanged: 0/0
  1769 ;; Data sizes:     COMRAM   BANK0   BANK1   BANK2   BANK3   BANK4   BANK5   BANK6   BANK7   BANK8   BANK9  BANK10  BANK1
      +1  BANK12  BANK13  BANK14  BANK15
  1770 ;;      Params:         3       0       0       0       0       0       0       0       0       0       0       0       
      +0       0       0       0       0
  1771 ;;      Locals:         1       0       0       0       0       0       0       0       0       0       0       0       
      +0       0       0       0       0
  1772 ;;      Temps:          0       0       0       0       0       0       0       0       0       0       0       0       
      +0       0       0       0       0
  1773 ;;      Totals:         4       0       0       0       0       0       0       0       0       0       0       0       
      +0       0       0       0       0
  1774 ;;Total ram usage:        4 bytes
  1775 ;; Hardware stack levels used: 1
  1776 ;; Hardware stack levels required when called: 3
  1777 ;; This function calls:
  1778 ;;		_vfpfcnvrt
  1779 ;; This function is called by:
  1780 ;;		_sprintf
  1781 ;; This function uses a non-reentrant model
  1782 ;;
  1783                           
  1784                           	psect	text10
  1785   001C3A                     __ptext10:
  1786                           	callstack 0
  1787   001C3A                     _vfprintf:
  1788                           	callstack 25
  1789   001C3A                     
  1790                           ;C:\Program Files\Microchip\xc8\v2.45\pic\sources\c99\common\doprnt.c: 1817: int vfprint
      +                          f(FILE *fp, const char *fmt, va_list ap);C:\Program Files\Microchip\xc8\v2.45\pic\source
      +                          s\c99\common\doprnt.c: 1818: {;C:\Program Files\Microchip\xc8\v2.45\pic\sources\c99\comm
      +                          on\doprnt.c: 1820:     char *cfmt;;C:\Program Files\Microchip\xc8\v2.45\pic\sources\c99\
      +                          common\doprnt.c: 1822:     cfmt = (char *)fmt;
  1791   001C3A  C047  F049         	movff	vfprintf@fmt,vfprintf@cfmt
  1792                           
  1793                           ;C:\Program Files\Microchip\xc8\v2.45\pic\sources\c99\common\doprnt.c: 1826:     while (
      +                          *cfmt) {
  1794   001C3E  EF29  F00E         	goto	l2939
  1795   001C42                     l2937:
  1796                           
  1797                           ;C:\Program Files\Microchip\xc8\v2.45\pic\sources\c99\common\doprnt.c: 1830:    vfpfcnvr
      +                          t(fp, &cfmt, ap);
  1798   001C42  C046  F03B         	movff	vfprintf@fp,vfpfcnvrt@fp
  1799   001C46  0E49               	movlw	low vfprintf@cfmt
  1800   001C48  6E3C               	movwf	vfpfcnvrt@fmt^0,c
  1801   001C4A  C048  F03D         	movff	vfprintf@ap,vfpfcnvrt@ap
  1802   001C4E  EC20  F008         	call	_vfpfcnvrt	;wreg free
  1803   001C52                     l2939:
  1804                           
  1805                           ;C:\Program Files\Microchip\xc8\v2.45\pic\sources\c99\common\doprnt.c: 1826:     while (
      +                          *cfmt) {
  1806   001C52  C049  FFF6         	movff	vfprintf@cfmt,tblptrl
  1807   001C56                     	if	1	;There is more than 1 active tblptr byte
  1808   001C56  0E10               	movlw	high __smallconst
  1809   001C58  6EF7               	movwf	tblptrh,c
  1810   001C5A                     	endif
  1811   001C5A                     	if	1	;Program memory is < 0x10000, tblptru is always zero
  1812   001C5A  6AF8               	clrf	tblptru,c
  1813   001C5C                     	endif
  1814   001C5C                     	if	0	;tblptru may be non-zero
  1815   001C5C                     	endif
  1816   001C5C  0008               	tblrd		*
  1817   001C5E  50F5               	movf	tablat,w,c
  1818   001C60  0900               	iorlw	0
  1819   001C62  A4D8               	btfss	status,2,c
  1820   001C64  EF36  F00E         	goto	u1651
  1821   001C68  EF38  F00E         	goto	u1650
  1822   001C6C                     u1651:
  1823   001C6C  EF21  F00E         	goto	l2937
  1824   001C70                     u1650:
  1825   001C70                     
  1826                           ;C:\Program Files\Microchip\xc8\v2.45\pic\sources\c99\common\doprnt.c: 1835:  return 0;
  1827   001C70  0E00               	movlw	0
  1828   001C72  6E47               	movwf	(?_vfprintf+1)^0,c
  1829   001C74  0E00               	movlw	0
  1830   001C76  6E46               	movwf	?_vfprintf^0,c
  1831   001C78  0012               	return		;funcret
  1832   001C7A                     __end_of_vfprintf:
  1833                           	callstack 0
  1834                           
  1835 ;; *************** function _vfpfcnvrt *****************
  1836 ;; Defined at:
  1837 ;;		line 1177 in file "C:\Program Files\Microchip\xc8\v2.45\pic\sources\c99\common\doprnt.c"
  1838 ;; Parameters:    Size  Location     Type
  1839 ;;  fp              1   10[COMRAM] PTR struct _IO_FILE
  1840 ;;		 -> sprintf@f(12), 
  1841 ;;  fmt             1   11[COMRAM] PTR PTR unsigned char 
  1842 ;;		 -> vfprintf@cfmt(1), 
  1843 ;;  ap              1   12[COMRAM] PTR PTR void 
  1844 ;;		 -> sprintf@ap(1), 
  1845 ;; Auto vars:     Size  Location     Type
  1846 ;;  convarg         4   16[COMRAM] struct .
  1847 ;;  c               1   20[COMRAM] unsigned char 
  1848 ;;  cp              1   15[COMRAM] PTR unsigned char 
  1849 ;;		 -> STR_3(3), STR_2(3), STR_1(3), 
  1850 ;;  done            1   14[COMRAM] _Bool 
  1851 ;; Return value:  Size  Location     Type
  1852 ;;                  1    wreg      void 
  1853 ;; Registers used:
  1854 ;;		wreg, fsr1l, fsr1h, fsr2l, fsr2h, status,2, status,0, tblptrl, tblptrh, tblptru, cstack
  1855 ;; Tracked objects:
  1856 ;;		On entry : 0/0
  1857 ;;		On exit  : 0/0
  1858 ;;		Unchanged: 0/0
  1859 ;; Data sizes:     COMRAM   BANK0   BANK1   BANK2   BANK3   BANK4   BANK5   BANK6   BANK7   BANK8   BANK9  BANK10  BANK1
      +1  BANK12  BANK13  BANK14  BANK15
  1860 ;;      Params:         3       0       0       0       0       0       0       0       0       0       0       0       
      +0       0       0       0       0
  1861 ;;      Locals:         7       0       0       0       0       0       0       0       0       0       0       0       
      +0       0       0       0       0
  1862 ;;      Temps:          1       0       0       0       0       0       0       0       0       0       0       0       
      +0       0       0       0       0
  1863 ;;      Totals:        11       0       0       0       0       0       0       0       0       0       0       0       
      +0       0       0       0       0
  1864 ;;Total ram usage:       11 bytes
  1865 ;; Hardware stack levels used: 1
  1866 ;; Hardware stack levels required when called: 2
  1867 ;; This function calls:
  1868 ;;		___awdiv
  1869 ;;		___awmod
  1870 ;;		_abs
  1871 ;;		_fputc
  1872 ;; This function is called by:
  1873 ;;		_vfprintf
  1874 ;; This function uses a non-reentrant model
  1875 ;;
  1876                           
  1877                           	psect	text11
  1878   001040                     __ptext11:
  1879                           	callstack 0
  1880   001040                     _vfpfcnvrt:
  1881                           	callstack 25
  1882   001040                     
  1883                           ;C:\Program Files\Microchip\xc8\v2.45\pic\sources\c99\common\doprnt.c: 1177: vfpfcnvrt(F
      +                          ILE *fp, char *fmt[], va_list ap);C:\Program Files\Microchip\xc8\v2.45\pic\sources\c99\c
      +                          ommon\doprnt.c: 1178: {;C:\Program Files\Microchip\xc8\v2.45\pic\sources\c99\common\dopr
      +                          nt.c: 1179:     char c, *cp;;C:\Program Files\Microchip\xc8\v2.45\pic\sources\c99\common
      +                          \doprnt.c: 1180:     _Bool done;;C:\Program Files\Microchip\xc8\v2.45\pic\sources\c99\co
      +                          mmon\doprnt.c: 1188:  } convarg;;C:\Program Files\Microchip\xc8\v2.45\pic\sources\c99\co
      +                          mmon\doprnt.c: 1201:     if ((*fmt)[0] == '%') {
  1884   001040  503C               	movf	vfpfcnvrt@fmt^0,w,c
  1885   001042  6ED9               	movwf	fsr2l,c
  1886   001044  6ADA               	clrf	fsr2h,c
  1887   001046  CFDF FFF6          	movff	indf2,tblptrl
  1888   00104A                     	if	1	;There is more than 1 active tblptr byte
  1889   00104A  0E10               	movlw	high __smallconst
  1890   00104C  6EF7               	movwf	tblptrh,c
  1891   00104E                     	endif
  1892   00104E                     	if	1	;Program memory is < 0x10000, tblptru is always zero
  1893   00104E  6AF8               	clrf	tblptru,c
  1894   001050                     	endif
  1895   001050                     	if	0	;tblptru may be non-zero
  1896   001050                     	endif
  1897   001050  0008               	tblrd		*
  1898   001052  50F5               	movf	tablat,w,c
  1899   001054  0A25               	xorlw	37
  1900   001056  A4D8               	btfss	status,2,c
  1901   001058  EF30  F008         	goto	u1491
  1902   00105C  EF32  F008         	goto	u1490
  1903   001060                     u1491:
  1904   001060  EFED  F008         	goto	l2849
  1905   001064                     u1490:
  1906   001064                     
  1907                           ;C:\Program Files\Microchip\xc8\v2.45\pic\sources\c99\common\doprnt.c: 1202:         ++*
      +                          fmt;
  1908   001064  503C               	movf	vfpfcnvrt@fmt^0,w,c
  1909   001066  6ED9               	movwf	fsr2l,c
  1910   001068  6ADA               	clrf	fsr2h,c
  1911   00106A  2ADF               	incf	indf2,f,c
  1912   00106C                     
  1913                           ;C:\Program Files\Microchip\xc8\v2.45\pic\sources\c99\common\doprnt.c: 1204:         fla
      +                          gs = width = 0;
  1914   00106C  0E00               	movlw	0
  1915   00106E  6E5E               	movwf	(_width+1)^0,c
  1916   001070  0E00               	movlw	0
  1917   001072  6E5D               	movwf	_width^0,c
  1918   001074  C05D  F067         	movff	_width,_flags
  1919   001078                     
  1920                           ;C:\Program Files\Microchip\xc8\v2.45\pic\sources\c99\common\doprnt.c: 1205:         pre
      +                          c = -1;
  1921   001078  685F               	setf	_prec^0,c
  1922   00107A  6860               	setf	(_prec+1)^0,c
  1923   00107C                     
  1924                           ;C:\Program Files\Microchip\xc8\v2.45\pic\sources\c99\common\doprnt.c: 1291:   cp = *fmt
      +                          ;
  1925   00107C  503C               	movf	vfpfcnvrt@fmt^0,w,c
  1926   00107E  6ED9               	movwf	fsr2l,c
  1927   001080  6ADA               	clrf	fsr2h,c
  1928   001082  50DF               	movf	indf2,w,c
  1929   001084  6E40               	movwf	vfpfcnvrt@cp^0,c
  1930   001086                     
  1931                           ;C:\Program Files\Microchip\xc8\v2.45\pic\sources\c99\common\doprnt.c: 1361:   if (*cp =
      +                          = 'd' || *cp == 'i') {
  1932   001086  C040  FFF6         	movff	vfpfcnvrt@cp,tblptrl
  1933   00108A                     	if	1	;There is more than 1 active tblptr byte
  1934   00108A  0E10               	movlw	high __smallconst
  1935   00108C  6EF7               	movwf	tblptrh,c
  1936   00108E                     	endif
  1937   00108E                     	if	1	;Program memory is < 0x10000, tblptru is always zero
  1938   00108E  6AF8               	clrf	tblptru,c
  1939   001090                     	endif
  1940   001090                     	if	0	;tblptru may be non-zero
  1941   001090                     	endif
  1942   001090  0008               	tblrd		*
  1943   001092  50F5               	movf	tablat,w,c
  1944   001094  0A64               	xorlw	100
  1945   001096  B4D8               	btfsc	status,2,c
  1946   001098  EF50  F008         	goto	u1501
  1947   00109C  EF52  F008         	goto	u1500
  1948   0010A0                     u1501:
  1949   0010A0  EF61  F008         	goto	l2819
  1950   0010A4                     u1500:
  1951   0010A4  C040  FFF6         	movff	vfpfcnvrt@cp,tblptrl
  1952   0010A8                     	if	1	;There is more than 1 active tblptr byte
  1953   0010A8  0E10               	movlw	high __smallconst
  1954   0010AA  6EF7               	movwf	tblptrh,c
  1955   0010AC                     	endif
  1956   0010AC                     	if	1	;Program memory is < 0x10000, tblptru is always zero
  1957   0010AC  6AF8               	clrf	tblptru,c
  1958   0010AE                     	endif
  1959   0010AE                     	if	0	;tblptru may be non-zero
  1960   0010AE                     	endif
  1961   0010AE  0008               	tblrd		*
  1962   0010B0  50F5               	movf	tablat,w,c
  1963   0010B2  0A69               	xorlw	105
  1964   0010B4  A4D8               	btfss	status,2,c
  1965   0010B6  EF5F  F008         	goto	u1511
  1966   0010BA  EF61  F008         	goto	u1510
  1967   0010BE                     u1511:
  1968   0010BE  EFE7  F008         	goto	l2845
  1969   0010C2                     u1510:
  1970   0010C2                     l2819:
  1971                           
  1972                           ;C:\Program Files\Microchip\xc8\v2.45\pic\sources\c99\common\doprnt.c: 1404:    convarg.
      +                          sint = (vfpf_sint_t)(int)(*(int *)__va_arg(*(int **)ap, (int)0));
  1973   0010C2  503D               	movf	vfpfcnvrt@ap^0,w,c
  1974   0010C4  6ED9               	movwf	fsr2l,c
  1975   0010C6  6ADA               	clrf	fsr2h,c
  1976   0010C8  0E02               	movlw	2
  1977   0010CA  26DF               	addwf	indf2,f,c
  1978   0010CC  5CDF               	subwf	indf2,w,c
  1979   0010CE  6ED9               	movwf	fsr2l,c
  1980   0010D0  6ADA               	clrf	fsr2h,c
  1981   0010D2  CFDE F041          	movff	postinc2,vfpfcnvrt@convarg
  1982   0010D6  CFDE F042          	movff	postinc2,vfpfcnvrt@convarg+1
  1983   0010DA                     
  1984                           ;C:\Program Files\Microchip\xc8\v2.45\pic\sources\c99\common\doprnt.c: 1406:    *fmt = c
      +                          p+1;
  1985   0010DA  503C               	movf	vfpfcnvrt@fmt^0,w,c
  1986   0010DC  6ED9               	movwf	fsr2l,c
  1987   0010DE  6ADA               	clrf	fsr2h,c
  1988   0010E0  2840               	incf	vfpfcnvrt@cp^0,w,c
  1989   0010E2  6EDF               	movwf	indf2,c
  1990   0010E4                     
  1991                           ;C:\Program Files\Microchip\xc8\v2.45\pic\sources\c99\common\doprnt.c: 1408:    c = size
      +                          of(dbuf);
  1992   0010E4  0E20               	movlw	32
  1993   0010E6  6E45               	movwf	vfpfcnvrt@c^0,c
  1994                           
  1995                           ;C:\Program Files\Microchip\xc8\v2.45\pic\sources\c99\common\doprnt.c: 1409:    done = c
      +                          onvarg.sint < 0;
  1996   0010E8  BE42               	btfsc	(vfpfcnvrt@convarg+1)^0,7,c
  1997   0010EA  EF79  F008         	goto	u1521
  1998   0010EE  EF7C  F008         	goto	u1520
  1999   0010F2                     u1521:
  2000   0010F2  0E01               	movlw	1
  2001   0010F4  EF7D  F008         	goto	u1530
  2002   0010F8                     u1520:
  2003   0010F8  0E00               	movlw	0
  2004   0010FA                     u1530:
  2005   0010FA  6E3F               	movwf	vfpfcnvrt@done^0,c
  2006   0010FC                     l2825:
  2007                           
  2008                           ;C:\Program Files\Microchip\xc8\v2.45\pic\sources\c99\common\doprnt.c: 1411:     dbuf[--
      +                          c] = abs(convarg.sint % 10) + '0';
  2009   0010FC  0645               	decf	vfpfcnvrt@c^0,f,c
  2010   0010FE  5045               	movf	vfpfcnvrt@c^0,w,c
  2011   001100  0F80               	addlw	low _dbuf
  2012   001102  6ED9               	movwf	fsr2l,c
  2013   001104  6ADA               	clrf	fsr2h,c
  2014   001106  C041  F031         	movff	vfpfcnvrt@convarg,___awmod@dividend
  2015   00110A  C042  F032         	movff	vfpfcnvrt@convarg+1,___awmod@dividend+1
  2016   00110E  0E00               	movlw	0
  2017   001110  6E34               	movwf	(___awmod@divisor+1)^0,c
  2018   001112  0E0A               	movlw	10
  2019   001114  6E33               	movwf	___awmod@divisor^0,c
  2020   001116  EC60  F00B         	call	___awmod	;wreg free
  2021   00111A  C031  F037         	movff	?___awmod,abs@a
  2022   00111E  C032  F038         	movff	?___awmod+1,abs@a+1
  2023   001122  ECB1  F00E         	call	_abs	;wreg free
  2024   001126  5037               	movf	?_abs^0,w,c
  2025   001128  0F30               	addlw	48
  2026   00112A  6EDF               	movwf	indf2,c
  2027   00112C                     
  2028                           ;C:\Program Files\Microchip\xc8\v2.45\pic\sources\c99\common\doprnt.c: 1412:     convarg
      +                          .sint /= 10;
  2029   00112C  C041  F031         	movff	vfpfcnvrt@convarg,___awdiv@dividend
  2030   001130  C042  F032         	movff	vfpfcnvrt@convarg+1,___awdiv@dividend+1
  2031   001134  0E00               	movlw	0
  2032   001136  6E34               	movwf	(___awdiv@divisor+1)^0,c
  2033   001138  0E0A               	movlw	10
  2034   00113A  6E33               	movwf	___awdiv@divisor^0,c
  2035   00113C  ECFE  F00A         	call	___awdiv	;wreg free
  2036   001140  C031  F041         	movff	?___awdiv,vfpfcnvrt@convarg
  2037   001144  C032  F042         	movff	?___awdiv+1,vfpfcnvrt@convarg+1
  2038   001148                     
  2039                           ;C:\Program Files\Microchip\xc8\v2.45\pic\sources\c99\common\doprnt.c: 1416:    } while 
      +                          (convarg.sint != 0 && c != 0);
  2040   001148  5041               	movf	vfpfcnvrt@convarg^0,w,c
  2041   00114A  1042               	iorwf	(vfpfcnvrt@convarg+1)^0,w,c
  2042   00114C  B4D8               	btfsc	status,2,c
  2043   00114E  EFAB  F008         	goto	u1541
  2044   001152  EFAD  F008         	goto	u1540
  2045   001156                     u1541:
  2046   001156  EFB5  F008         	goto	l2833
  2047   00115A                     u1540:
  2048   00115A  5045               	movf	vfpfcnvrt@c^0,w,c
  2049   00115C  A4D8               	btfss	status,2,c
  2050   00115E  EFB3  F008         	goto	u1551
  2051   001162  EFB5  F008         	goto	u1550
  2052   001166                     u1551:
  2053   001166  EF7E  F008         	goto	l2825
  2054   00116A                     u1550:
  2055   00116A                     l2833:
  2056                           
  2057                           ;C:\Program Files\Microchip\xc8\v2.45\pic\sources\c99\common\doprnt.c: 1417:    if (c !=
      +                           0 && done) {
  2058   00116A  5045               	movf	vfpfcnvrt@c^0,w,c
  2059   00116C  B4D8               	btfsc	status,2,c
  2060   00116E  EFBB  F008         	goto	u1561
  2061   001172  EFBD  F008         	goto	u1560
  2062   001176                     u1561:
  2063   001176  EFDC  F008         	goto	l2843
  2064   00117A                     u1560:
  2065   00117A  503F               	movf	vfpfcnvrt@done^0,w,c
  2066   00117C  B4D8               	btfsc	status,2,c
  2067   00117E  EFC3  F008         	goto	u1571
  2068   001182  EFC5  F008         	goto	u1570
  2069   001186                     u1571:
  2070   001186  EFDC  F008         	goto	l2843
  2071   00118A                     u1570:
  2072   00118A                     
  2073                           ;C:\Program Files\Microchip\xc8\v2.45\pic\sources\c99\common\doprnt.c: 1418:     dbuf[--
      +                          c] = '-';
  2074   00118A  0645               	decf	vfpfcnvrt@c^0,f,c
  2075   00118C  5045               	movf	vfpfcnvrt@c^0,w,c
  2076   00118E  0F80               	addlw	low _dbuf
  2077   001190  6ED9               	movwf	fsr2l,c
  2078   001192  6ADA               	clrf	fsr2h,c
  2079   001194  0E2D               	movlw	45
  2080   001196  6EDF               	movwf	indf2,c
  2081   001198  EFDC  F008         	goto	l2843
  2082   00119C                     l2839:
  2083                           
  2084                           ;C:\Program Files\Microchip\xc8\v2.45\pic\sources\c99\common\doprnt.c: 1424:     fputc(d
      +                          buf[c++], fp);
  2085   00119C  5045               	movf	vfpfcnvrt@c^0,w,c
  2086   00119E  0F80               	addlw	low _dbuf
  2087   0011A0  6ED9               	movwf	fsr2l,c
  2088   0011A2  6ADA               	clrf	fsr2h,c
  2089   0011A4  50DF               	movf	indf2,w,c
  2090   0011A6  6E3E               	movwf	??_vfpfcnvrt^0,c
  2091   0011A8  503E               	movf	??_vfpfcnvrt^0,w,c
  2092   0011AA  6E31               	movwf	fputc@c^0,c
  2093   0011AC  6A32               	clrf	(fputc@c+1)^0,c
  2094   0011AE  C03B  F033         	movff	vfpfcnvrt@fp,fputc@fp
  2095   0011B2  EC0F  F00C         	call	_fputc	;wreg free
  2096   0011B6  2A45               	incf	vfpfcnvrt@c^0,f,c
  2097   0011B8                     l2843:
  2098                           
  2099                           ;C:\Program Files\Microchip\xc8\v2.45\pic\sources\c99\common\doprnt.c: 1423:    while (c
      +                           != sizeof(dbuf)) {
  2100   0011B8  0E20               	movlw	32
  2101   0011BA  1845               	xorwf	vfpfcnvrt@c^0,w,c
  2102   0011BC  A4D8               	btfss	status,2,c
  2103   0011BE  EFE3  F008         	goto	u1581
  2104   0011C2  EFE5  F008         	goto	u1580
  2105   0011C6                     u1581:
  2106   0011C6  EFCE  F008         	goto	l2839
  2107   0011CA                     u1580:
  2108   0011CA  EFFF  F008         	goto	l1625
  2109   0011CE                     l2845:
  2110                           
  2111                           ;C:\Program Files\Microchip\xc8\v2.45\pic\sources\c99\common\doprnt.c: 1806:         ++*
      +                          fmt;
  2112   0011CE  503C               	movf	vfpfcnvrt@fmt^0,w,c
  2113   0011D0  6ED9               	movwf	fsr2l,c
  2114   0011D2  6ADA               	clrf	fsr2h,c
  2115   0011D4  2ADF               	incf	indf2,f,c
  2116   0011D6  EFFF  F008         	goto	l1625
  2117   0011DA                     l2849:
  2118                           
  2119                           ;C:\Program Files\Microchip\xc8\v2.45\pic\sources\c99\common\doprnt.c: 1811:     fputc((
      +                          int)(*fmt)[0], fp);
  2120   0011DA  503C               	movf	vfpfcnvrt@fmt^0,w,c
  2121   0011DC  6ED9               	movwf	fsr2l,c
  2122   0011DE  6ADA               	clrf	fsr2h,c
  2123   0011E0  CFDF FFF6          	movff	indf2,tblptrl
  2124   0011E4                     	if	1	;There is more than 1 active tblptr byte
  2125   0011E4  0E10               	movlw	high __smallconst
  2126   0011E6  6EF7               	movwf	tblptrh,c
  2127   0011E8                     	endif
  2128   0011E8                     	if	1	;Program memory is < 0x10000, tblptru is always zero
  2129   0011E8  6AF8               	clrf	tblptru,c
  2130   0011EA                     	endif
  2131   0011EA                     	if	0	;tblptru may be non-zero
  2132   0011EA                     	endif
  2133   0011EA  0008               	tblrd		*
  2134   0011EC  50F5               	movf	tablat,w,c
  2135   0011EE  6E31               	movwf	fputc@c^0,c
  2136   0011F0  6A32               	clrf	(fputc@c+1)^0,c
  2137   0011F2  C03B  F033         	movff	vfpfcnvrt@fp,fputc@fp
  2138   0011F6  EC0F  F00C         	call	_fputc	;wreg free
  2139   0011FA  EFE7  F008         	goto	l2845
  2140   0011FE                     l1625:
  2141   0011FE  0012               	return		;funcret
  2142   001200                     __end_of_vfpfcnvrt:
  2143                           	callstack 0
  2144                           
  2145 ;; *************** function _fputc *****************
  2146 ;; Defined at:
  2147 ;;		line 8 in file "C:\Program Files\Microchip\xc8\v2.45\pic\sources\c99\common\nf_fputc.c"
  2148 ;; Parameters:    Size  Location     Type
  2149 ;;  c               2    0[COMRAM] int 
  2150 ;;  fp              1    2[COMRAM] PTR struct _IO_FILE
  2151 ;;		 -> sprintf@f(12), 
  2152 ;; Auto vars:     Size  Location     Type
  2153 ;;		None
  2154 ;; Return value:  Size  Location     Type
  2155 ;;                  2    0[COMRAM] int 
  2156 ;; Registers used:
  2157 ;;		wreg, fsr1l, fsr1h, fsr2l, fsr2h, status,2, status,0, cstack
  2158 ;; Tracked objects:
  2159 ;;		On entry : 0/0
  2160 ;;		On exit  : 0/0
  2161 ;;		Unchanged: 0/0
  2162 ;; Data sizes:     COMRAM   BANK0   BANK1   BANK2   BANK3   BANK4   BANK5   BANK6   BANK7   BANK8   BANK9  BANK10  BANK1
      +1  BANK12  BANK13  BANK14  BANK15
  2163 ;;      Params:         3       0       0       0       0       0       0       0       0       0       0       0       
      +0       0       0       0       0
  2164 ;;      Locals:         0       0       0       0       0       0       0       0       0       0       0       0       
      +0       0       0       0       0
  2165 ;;      Temps:          5       0       0       0       0       0       0       0       0       0       0       0       
      +0       0       0       0       0
  2166 ;;      Totals:         8       0       0       0       0       0       0       0       0       0       0       0       
      +0       0       0       0       0
  2167 ;;Total ram usage:        8 bytes
  2168 ;; Hardware stack levels used: 1
  2169 ;; Hardware stack levels required when called: 1
  2170 ;; This function calls:
  2171 ;;		_putch
  2172 ;; This function is called by:
  2173 ;;		_vfpfcnvrt
  2174 ;; This function uses a non-reentrant model
  2175 ;;
  2176                           
  2177                           	psect	text12
  2178   00181E                     __ptext12:
  2179                           	callstack 0
  2180   00181E                     _fputc:
  2181                           	callstack 25
  2182   00181E  5033               	movf	fputc@fp^0,w,c
  2183   001820  B4D8               	btfsc	status,2,c
  2184   001822  EF15  F00C         	goto	u1411
  2185   001826  EF17  F00C         	goto	u1410
  2186   00182A                     u1411:
  2187   00182A  EF1F  F00C         	goto	l2769
  2188   00182E                     u1410:
  2189   00182E  5033               	movf	fputc@fp^0,w,c
  2190   001830  A4D8               	btfss	status,2,c
  2191   001832  EF1D  F00C         	goto	u1421
  2192   001836  EF1F  F00C         	goto	u1420
  2193   00183A                     u1421:
  2194   00183A  EF24  F00C         	goto	l2771
  2195   00183E                     u1420:
  2196   00183E                     l2769:
  2197   00183E  5031               	movf	fputc@c^0,w,c
  2198   001840  EC1A  F00F         	call	_putch
  2199   001844  EF63  F00C         	goto	l1650
  2200   001848                     l2771:
  2201   001848  5033               	movf	fputc@fp^0,w,c
  2202   00184A  6ED9               	movwf	fsr2l,c
  2203   00184C  6ADA               	clrf	fsr2h,c
  2204   00184E  0E0A               	movlw	10
  2205   001850  26D9               	addwf	fsr2l,f,c
  2206   001852  50DE               	movf	postinc2,w,c
  2207   001854  10DE               	iorwf	postinc2,w,c
  2208   001856  B4D8               	btfsc	status,2,c
  2209   001858  EF30  F00C         	goto	u1431
  2210   00185C  EF32  F00C         	goto	u1430
  2211   001860                     u1431:
  2212   001860  EF4B  F00C         	goto	l2775
  2213   001864                     u1430:
  2214   001864  5033               	movf	fputc@fp^0,w,c
  2215   001866  6ED9               	movwf	fsr2l,c
  2216   001868  6ADA               	clrf	fsr2h,c
  2217   00186A  0E0A               	movlw	10
  2218   00186C  26D9               	addwf	fsr2l,f,c
  2219   00186E  5033               	movf	fputc@fp^0,w,c
  2220   001870  6EE1               	movwf	fsr1l,c
  2221   001872  6AE2               	clrf	fsr1h,c
  2222   001874  0E03               	movlw	3
  2223   001876  26E1               	addwf	fsr1l,f,c
  2224   001878  50DE               	movf	postinc2,w,c
  2225   00187A  5CE6               	subwf	postinc1,w,c
  2226   00187C  50E6               	movf	postinc1,w,c
  2227   00187E  0A80               	xorlw	128
  2228   001880  6E38               	movwf	(??_fputc+4)^0,c
  2229   001882  50DE               	movf	postinc2,w,c
  2230   001884  0A80               	xorlw	128
  2231   001886  5838               	subwfb	(??_fputc+4)^0,w,c
  2232   001888  B0D8               	btfsc	status,0,c
  2233   00188A  EF49  F00C         	goto	u1441
  2234   00188E  EF4B  F00C         	goto	u1440
  2235   001892                     u1441:
  2236   001892  EF63  F00C         	goto	l1650
  2237   001896                     u1440:
  2238   001896                     l2775:
  2239   001896  5033               	movf	fputc@fp^0,w,c
  2240   001898  6ED9               	movwf	fsr2l,c
  2241   00189A  6ADA               	clrf	fsr2h,c
  2242   00189C  0E03               	movlw	3
  2243   00189E  26D9               	addwf	fsr2l,f,c
  2244   0018A0  50DF               	movf	indf2,w,c
  2245   0018A2  6E34               	movwf	??_fputc^0,c
  2246   0018A4  5033               	movf	fputc@fp^0,w,c
  2247   0018A6  6ED9               	movwf	fsr2l,c
  2248   0018A8  6ADA               	clrf	fsr2h,c
  2249   0018AA  50DF               	movf	indf2,w,c
  2250   0018AC  2434               	addwf	??_fputc^0,w,c
  2251   0018AE  6ED9               	movwf	fsr2l,c
  2252   0018B0  6ADA               	clrf	fsr2h,c
  2253   0018B2  C031  FFDF         	movff	fputc@c,indf2
  2254   0018B6  5033               	movf	fputc@fp^0,w,c
  2255   0018B8  6ED9               	movwf	fsr2l,c
  2256   0018BA  6ADA               	clrf	fsr2h,c
  2257   0018BC  0E03               	movlw	3
  2258   0018BE  26D9               	addwf	fsr2l,f,c
  2259   0018C0  2ADE               	incf	postinc2,f,c
  2260   0018C2  0E00               	movlw	0
  2261   0018C4  22DD               	addwfc	postdec2,f,c
  2262   0018C6                     l1650:
  2263   0018C6  0012               	return		;funcret
  2264   0018C8                     __end_of_fputc:
  2265                           	callstack 0
  2266                           
  2267 ;; *************** function _putch *****************
  2268 ;; Defined at:
  2269 ;;		line 7 in file "C:\Program Files\Microchip\xc8\v2.45\pic\sources\c99\common\putch.c"
  2270 ;; Parameters:    Size  Location     Type
  2271 ;;  c               1    wreg     unsigned char 
  2272 ;; Auto vars:     Size  Location     Type
  2273 ;;  c               1    0[COMRAM] unsigned char 
  2274 ;; Return value:  Size  Location     Type
  2275 ;;                  1    wreg      void 
  2276 ;; Registers used:
  2277 ;;		wreg
  2278 ;; Tracked objects:
  2279 ;;		On entry : 0/0
  2280 ;;		On exit  : 0/0
  2281 ;;		Unchanged: 0/0
  2282 ;; Data sizes:     COMRAM   BANK0   BANK1   BANK2   BANK3   BANK4   BANK5   BANK6   BANK7   BANK8   BANK9  BANK10  BANK1
      +1  BANK12  BANK13  BANK14  BANK15
  2283 ;;      Params:         0       0       0       0       0       0       0       0       0       0       0       0       
      +0       0       0       0       0
  2284 ;;      Locals:         0       0       0       0       0       0       0       0       0       0       0       0       
      +0       0       0       0       0
  2285 ;;      Temps:          0       0       0       0       0       0       0       0       0       0       0       0       
      +0       0       0       0       0
  2286 ;;      Totals:         0       0       0       0       0       0       0       0       0       0       0       0       
      +0       0       0       0       0
  2287 ;;Total ram usage:        0 bytes
  2288 ;; Hardware stack levels used: 1
  2289 ;; This function calls:
  2290 ;;		Nothing
  2291 ;; This function is called by:
  2292 ;;		_fputc
  2293 ;; This function uses a non-reentrant model
  2294 ;;
  2295                           
  2296                           	psect	text13
  2297   001E34                     __ptext13:
  2298                           	callstack 0
  2299   001E34                     _putch:
  2300                           	callstack 25
  2301   001E34  0012               	return		;funcret
  2302   001E36                     __end_of_putch:
  2303                           	callstack 0
  2304                           
  2305 ;; *************** function _abs *****************
  2306 ;; Defined at:
  2307 ;;		line 1 in file "C:\Program Files\Microchip\xc8\v2.45\pic\sources\c99\common\abs.c"
  2308 ;; Parameters:    Size  Location     Type
  2309 ;;  a               2    6[COMRAM] int 
  2310 ;; Auto vars:     Size  Location     Type
  2311 ;;		None
  2312 ;; Return value:  Size  Location     Type
  2313 ;;                  2    6[COMRAM] int 
  2314 ;; Registers used:
  2315 ;;		wreg, status,2, status,0
  2316 ;; Tracked objects:
  2317 ;;		On entry : 0/0
  2318 ;;		On exit  : 0/0
  2319 ;;		Unchanged: 0/0
  2320 ;; Data sizes:     COMRAM   BANK0   BANK1   BANK2   BANK3   BANK4   BANK5   BANK6   BANK7   BANK8   BANK9  BANK10  BANK1
      +1  BANK12  BANK13  BANK14  BANK15
  2321 ;;      Params:         2       0       0       0       0       0       0       0       0       0       0       0       
      +0       0       0       0       0
  2322 ;;      Locals:         0       0       0       0       0       0       0       0       0       0       0       0       
      +0       0       0       0       0
  2323 ;;      Temps:          2       0       0       0       0       0       0       0       0       0       0       0       
      +0       0       0       0       0
  2324 ;;      Totals:         4       0       0       0       0       0       0       0       0       0       0       0       
      +0       0       0       0       0
  2325 ;;Total ram usage:        4 bytes
  2326 ;; Hardware stack levels used: 1
  2327 ;; This function calls:
  2328 ;;		Nothing
  2329 ;; This function is called by:
  2330 ;;		_vfpfcnvrt
  2331 ;; This function uses a non-reentrant model
  2332 ;;
  2333                           
  2334                           	psect	text14
  2335   001D62                     __ptext14:
  2336                           	callstack 0
  2337   001D62                     _abs:
  2338                           	callstack 26
  2339   001D62  BE38               	btfsc	(abs@a+1)^0,7,c
  2340   001D64  EFB6  F00E         	goto	u1451
  2341   001D68  EFB8  F00E         	goto	u1450
  2342   001D6C                     u1451:
  2343   001D6C  EFBE  F00E         	goto	l1635
  2344   001D70                     u1450:
  2345   001D70  C037  F037         	movff	abs@a,?_abs
  2346   001D74  C038  F038         	movff	abs@a+1,?_abs+1
  2347   001D78  EFCA  F00E         	goto	l1638
  2348   001D7C                     l1635:
  2349   001D7C  C037  F039         	movff	abs@a,??_abs
  2350   001D80  C038  F03A         	movff	abs@a+1,??_abs+1
  2351   001D84  1E39               	comf	??_abs^0,f,c
  2352   001D86  1E3A               	comf	(??_abs+1)^0,f,c
  2353   001D88  4A39               	infsnz	??_abs^0,f,c
  2354   001D8A  2A3A               	incf	(??_abs+1)^0,f,c
  2355   001D8C  C039  F037         	movff	??_abs,?_abs
  2356   001D90  C03A  F038         	movff	??_abs+1,?_abs+1
  2357   001D94                     l1638:
  2358   001D94  0012               	return		;funcret
  2359   001D96                     __end_of_abs:
  2360                           	callstack 0
  2361                           
  2362 ;; *************** function ___awmod *****************
  2363 ;; Defined at:
  2364 ;;		line 7 in file "C:\Program Files\Microchip\xc8\v2.45\pic\sources\c99\common\awmod.c"
  2365 ;; Parameters:    Size  Location     Type
  2366 ;;  dividend        2    0[COMRAM] int 
  2367 ;;  divisor         2    2[COMRAM] int 
  2368 ;; Auto vars:     Size  Location     Type
  2369 ;;  sign            1    5[COMRAM] unsigned char 
  2370 ;;  counter         1    4[COMRAM] unsigned char 
  2371 ;; Return value:  Size  Location     Type
  2372 ;;                  2    0[COMRAM] int 
  2373 ;; Registers used:
  2374 ;;		wreg, status,2, status,0
  2375 ;; Tracked objects:
  2376 ;;		On entry : 0/0
  2377 ;;		On exit  : 0/0
  2378 ;;		Unchanged: 0/0
  2379 ;; Data sizes:     COMRAM   BANK0   BANK1   BANK2   BANK3   BANK4   BANK5   BANK6   BANK7   BANK8   BANK9  BANK10  BANK1
      +1  BANK12  BANK13  BANK14  BANK15
  2380 ;;      Params:         4       0       0       0       0       0       0       0       0       0       0       0       
      +0       0       0       0       0
  2381 ;;      Locals:         2       0       0       0       0       0       0       0       0       0       0       0       
      +0       0       0       0       0
  2382 ;;      Temps:          0       0       0       0       0       0       0       0       0       0       0       0       
      +0       0       0       0       0
  2383 ;;      Totals:         6       0       0       0       0       0       0       0       0       0       0       0       
      +0       0       0       0       0
  2384 ;;Total ram usage:        6 bytes
  2385 ;; Hardware stack levels used: 1
  2386 ;; This function calls:
  2387 ;;		Nothing
  2388 ;; This function is called by:
  2389 ;;		_vfpfcnvrt
  2390 ;; This function uses a non-reentrant model
  2391 ;;
  2392                           
  2393                           	psect	text15
  2394   0016C0                     __ptext15:
  2395                           	callstack 0
  2396   0016C0                     ___awmod:
  2397                           	callstack 26
  2398   0016C0  0E00               	movlw	0
  2399   0016C2  6E36               	movwf	___awmod@sign^0,c
  2400   0016C4  BE32               	btfsc	(___awmod@dividend+1)^0,7,c
  2401   0016C6  EF69  F00B         	goto	u1350
  2402   0016CA  EF67  F00B         	goto	u1351
  2403   0016CE                     u1351:
  2404   0016CE  EF6F  F00B         	goto	l2737
  2405   0016D2                     u1350:
  2406   0016D2  6C31               	negf	___awmod@dividend^0,c
  2407   0016D4  1E32               	comf	(___awmod@dividend+1)^0,f,c
  2408   0016D6  B0D8               	btfsc	status,0,c
  2409   0016D8  2A32               	incf	(___awmod@dividend+1)^0,f,c
  2410   0016DA  0E01               	movlw	1
  2411   0016DC  6E36               	movwf	___awmod@sign^0,c
  2412   0016DE                     l2737:
  2413   0016DE  BE34               	btfsc	(___awmod@divisor+1)^0,7,c
  2414   0016E0  EF76  F00B         	goto	u1360
  2415   0016E4  EF74  F00B         	goto	u1361
  2416   0016E8                     u1361:
  2417   0016E8  EF7A  F00B         	goto	l2741
  2418   0016EC                     u1360:
  2419   0016EC  6C33               	negf	___awmod@divisor^0,c
  2420   0016EE  1E34               	comf	(___awmod@divisor+1)^0,f,c
  2421   0016F0  B0D8               	btfsc	status,0,c
  2422   0016F2  2A34               	incf	(___awmod@divisor+1)^0,f,c
  2423   0016F4                     l2741:
  2424   0016F4  5033               	movf	___awmod@divisor^0,w,c
  2425   0016F6  1034               	iorwf	(___awmod@divisor+1)^0,w,c
  2426   0016F8  B4D8               	btfsc	status,2,c
  2427   0016FA  EF81  F00B         	goto	u1371
  2428   0016FE  EF83  F00B         	goto	u1370
  2429   001702                     u1371:
  2430   001702  EFA7  F00B         	goto	l2757
  2431   001706                     u1370:
  2432   001706  0E01               	movlw	1
  2433   001708  6E35               	movwf	___awmod@counter^0,c
  2434   00170A  EF8B  F00B         	goto	l2747
  2435   00170E                     l2745:
  2436   00170E  90D8               	bcf	status,0,c
  2437   001710  3633               	rlcf	___awmod@divisor^0,f,c
  2438   001712  3634               	rlcf	(___awmod@divisor+1)^0,f,c
  2439   001714  2A35               	incf	___awmod@counter^0,f,c
  2440   001716                     l2747:
  2441   001716  AE34               	btfss	(___awmod@divisor+1)^0,7,c
  2442   001718  EF90  F00B         	goto	u1381
  2443   00171C  EF92  F00B         	goto	u1380
  2444   001720                     u1381:
  2445   001720  EF87  F00B         	goto	l2745
  2446   001724                     u1380:
  2447   001724                     l2749:
  2448   001724  5033               	movf	___awmod@divisor^0,w,c
  2449   001726  5C31               	subwf	___awmod@dividend^0,w,c
  2450   001728  5034               	movf	(___awmod@divisor+1)^0,w,c
  2451   00172A  5832               	subwfb	(___awmod@dividend+1)^0,w,c
  2452   00172C  A0D8               	btfss	status,0,c
  2453   00172E  EF9B  F00B         	goto	u1391
  2454   001732  EF9D  F00B         	goto	u1390
  2455   001736                     u1391:
  2456   001736  EFA1  F00B         	goto	l2753
  2457   00173A                     u1390:
  2458   00173A  5033               	movf	___awmod@divisor^0,w,c
  2459   00173C  5E31               	subwf	___awmod@dividend^0,f,c
  2460   00173E  5034               	movf	(___awmod@divisor+1)^0,w,c
  2461   001740  5A32               	subwfb	(___awmod@dividend+1)^0,f,c
  2462   001742                     l2753:
  2463   001742  90D8               	bcf	status,0,c
  2464   001744  3234               	rrcf	(___awmod@divisor+1)^0,f,c
  2465   001746  3233               	rrcf	___awmod@divisor^0,f,c
  2466   001748  2E35               	decfsz	___awmod@counter^0,f,c
  2467   00174A  EF92  F00B         	goto	l2749
  2468   00174E                     l2757:
  2469   00174E  5036               	movf	___awmod@sign^0,w,c
  2470   001750  B4D8               	btfsc	status,2,c
  2471   001752  EFAD  F00B         	goto	u1401
  2472   001756  EFAF  F00B         	goto	u1400
  2473   00175A                     u1401:
  2474   00175A  EFB3  F00B         	goto	l2761
  2475   00175E                     u1400:
  2476   00175E  6C31               	negf	___awmod@dividend^0,c
  2477   001760  1E32               	comf	(___awmod@dividend+1)^0,f,c
  2478   001762  B0D8               	btfsc	status,0,c
  2479   001764  2A32               	incf	(___awmod@dividend+1)^0,f,c
  2480   001766                     l2761:
  2481   001766  C031  F031         	movff	___awmod@dividend,?___awmod
  2482   00176A  C032  F032         	movff	___awmod@dividend+1,?___awmod+1
  2483   00176E  0012               	return		;funcret
  2484   001770                     __end_of___awmod:
  2485                           	callstack 0
  2486                           
  2487 ;; *************** function ___awdiv *****************
  2488 ;; Defined at:
  2489 ;;		line 7 in file "C:\Program Files\Microchip\xc8\v2.45\pic\sources\c99\common\awdiv.c"
  2490 ;; Parameters:    Size  Location     Type
  2491 ;;  dividend        2    0[COMRAM] int 
  2492 ;;  divisor         2    2[COMRAM] int 
  2493 ;; Auto vars:     Size  Location     Type
  2494 ;;  quotient        2    6[COMRAM] int 
  2495 ;;  sign            1    5[COMRAM] unsigned char 
  2496 ;;  counter         1    4[COMRAM] unsigned char 
  2497 ;; Return value:  Size  Location     Type
  2498 ;;                  2    0[COMRAM] int 
  2499 ;; Registers used:
  2500 ;;		wreg, status,2, status,0
  2501 ;; Tracked objects:
  2502 ;;		On entry : 0/0
  2503 ;;		On exit  : 0/0
  2504 ;;		Unchanged: 0/0
  2505 ;; Data sizes:     COMRAM   BANK0   BANK1   BANK2   BANK3   BANK4   BANK5   BANK6   BANK7   BANK8   BANK9  BANK10  BANK1
      +1  BANK12  BANK13  BANK14  BANK15
  2506 ;;      Params:         4       0       0       0       0       0       0       0       0       0       0       0       
      +0       0       0       0       0
  2507 ;;      Locals:         4       0       0       0       0       0       0       0       0       0       0       0       
      +0       0       0       0       0
  2508 ;;      Temps:          0       0       0       0       0       0       0       0       0       0       0       0       
      +0       0       0       0       0
  2509 ;;      Totals:         8       0       0       0       0       0       0       0       0       0       0       0       
      +0       0       0       0       0
  2510 ;;Total ram usage:        8 bytes
  2511 ;; Hardware stack levels used: 1
  2512 ;; This function calls:
  2513 ;;		Nothing
  2514 ;; This function is called by:
  2515 ;;		_vfpfcnvrt
  2516 ;; This function uses a non-reentrant model
  2517 ;;
  2518                           
  2519                           	psect	text16
  2520   0015FC                     __ptext16:
  2521                           	callstack 0
  2522   0015FC                     ___awdiv:
  2523                           	callstack 26
  2524   0015FC  0E00               	movlw	0
  2525   0015FE  6E36               	movwf	___awdiv@sign^0,c
  2526   001600  BE34               	btfsc	(___awdiv@divisor+1)^0,7,c
  2527   001602  EF07  F00B         	goto	u1290
  2528   001606  EF05  F00B         	goto	u1291
  2529   00160A                     u1291:
  2530   00160A  EF0D  F00B         	goto	l2693
  2531   00160E                     u1290:
  2532   00160E  6C33               	negf	___awdiv@divisor^0,c
  2533   001610  1E34               	comf	(___awdiv@divisor+1)^0,f,c
  2534   001612  B0D8               	btfsc	status,0,c
  2535   001614  2A34               	incf	(___awdiv@divisor+1)^0,f,c
  2536   001616  0E01               	movlw	1
  2537   001618  6E36               	movwf	___awdiv@sign^0,c
  2538   00161A                     l2693:
  2539   00161A  BE32               	btfsc	(___awdiv@dividend+1)^0,7,c
  2540   00161C  EF14  F00B         	goto	u1300
  2541   001620  EF12  F00B         	goto	u1301
  2542   001624                     u1301:
  2543   001624  EF1A  F00B         	goto	l2699
  2544   001628                     u1300:
  2545   001628  6C31               	negf	___awdiv@dividend^0,c
  2546   00162A  1E32               	comf	(___awdiv@dividend+1)^0,f,c
  2547   00162C  B0D8               	btfsc	status,0,c
  2548   00162E  2A32               	incf	(___awdiv@dividend+1)^0,f,c
  2549   001630  0E01               	movlw	1
  2550   001632  1A36               	xorwf	___awdiv@sign^0,f,c
  2551   001634                     l2699:
  2552   001634  0E00               	movlw	0
  2553   001636  6E38               	movwf	(___awdiv@quotient+1)^0,c
  2554   001638  0E00               	movlw	0
  2555   00163A  6E37               	movwf	___awdiv@quotient^0,c
  2556   00163C  5033               	movf	___awdiv@divisor^0,w,c
  2557   00163E  1034               	iorwf	(___awdiv@divisor+1)^0,w,c
  2558   001640  B4D8               	btfsc	status,2,c
  2559   001642  EF25  F00B         	goto	u1311
  2560   001646  EF27  F00B         	goto	u1310
  2561   00164A                     u1311:
  2562   00164A  EF4F  F00B         	goto	l2721
  2563   00164E                     u1310:
  2564   00164E  0E01               	movlw	1
  2565   001650  6E35               	movwf	___awdiv@counter^0,c
  2566   001652  EF2F  F00B         	goto	l2707
  2567   001656                     l2705:
  2568   001656  90D8               	bcf	status,0,c
  2569   001658  3633               	rlcf	___awdiv@divisor^0,f,c
  2570   00165A  3634               	rlcf	(___awdiv@divisor+1)^0,f,c
  2571   00165C  2A35               	incf	___awdiv@counter^0,f,c
  2572   00165E                     l2707:
  2573   00165E  AE34               	btfss	(___awdiv@divisor+1)^0,7,c
  2574   001660  EF34  F00B         	goto	u1321
  2575   001664  EF36  F00B         	goto	u1320
  2576   001668                     u1321:
  2577   001668  EF2B  F00B         	goto	l2705
  2578   00166C                     u1320:
  2579   00166C                     l2709:
  2580   00166C  90D8               	bcf	status,0,c
  2581   00166E  3637               	rlcf	___awdiv@quotient^0,f,c
  2582   001670  3638               	rlcf	(___awdiv@quotient+1)^0,f,c
  2583   001672  5033               	movf	___awdiv@divisor^0,w,c
  2584   001674  5C31               	subwf	___awdiv@dividend^0,w,c
  2585   001676  5034               	movf	(___awdiv@divisor+1)^0,w,c
  2586   001678  5832               	subwfb	(___awdiv@dividend+1)^0,w,c
  2587   00167A  A0D8               	btfss	status,0,c
  2588   00167C  EF42  F00B         	goto	u1331
  2589   001680  EF44  F00B         	goto	u1330
  2590   001684                     u1331:
  2591   001684  EF49  F00B         	goto	l2717
  2592   001688                     u1330:
  2593   001688  5033               	movf	___awdiv@divisor^0,w,c
  2594   00168A  5E31               	subwf	___awdiv@dividend^0,f,c
  2595   00168C  5034               	movf	(___awdiv@divisor+1)^0,w,c
  2596   00168E  5A32               	subwfb	(___awdiv@dividend+1)^0,f,c
  2597   001690  8037               	bsf	___awdiv@quotient^0,0,c
  2598   001692                     l2717:
  2599   001692  90D8               	bcf	status,0,c
  2600   001694  3234               	rrcf	(___awdiv@divisor+1)^0,f,c
  2601   001696  3233               	rrcf	___awdiv@divisor^0,f,c
  2602   001698  2E35               	decfsz	___awdiv@counter^0,f,c
  2603   00169A  EF36  F00B         	goto	l2709
  2604   00169E                     l2721:
  2605   00169E  5036               	movf	___awdiv@sign^0,w,c
  2606   0016A0  B4D8               	btfsc	status,2,c
  2607   0016A2  EF55  F00B         	goto	u1341
  2608   0016A6  EF57  F00B         	goto	u1340
  2609   0016AA                     u1341:
  2610   0016AA  EF5B  F00B         	goto	l2725
  2611   0016AE                     u1340:
  2612   0016AE  6C37               	negf	___awdiv@quotient^0,c
  2613   0016B0  1E38               	comf	(___awdiv@quotient+1)^0,f,c
  2614   0016B2  B0D8               	btfsc	status,0,c
  2615   0016B4  2A38               	incf	(___awdiv@quotient+1)^0,f,c
  2616   0016B6                     l2725:
  2617   0016B6  C037  F031         	movff	___awdiv@quotient,?___awdiv
  2618   0016BA  C038  F032         	movff	___awdiv@quotient+1,?___awdiv+1
  2619   0016BE  0012               	return		;funcret
  2620   0016C0                     __end_of___awdiv:
  2621                           	callstack 0
  2622                           
  2623 ;; *************** function _memset *****************
  2624 ;; Defined at:
  2625 ;;		line 3 in file "C:\Program Files\Microchip\xc8\v2.45\pic\sources\c99\common\memset.c"
  2626 ;; Parameters:    Size  Location     Type
  2627 ;;  dest            1    0[COMRAM] PTR void 
  2628 ;;		 -> str(1), 
  2629 ;;  c               2    1[COMRAM] int 
  2630 ;;  n               2    3[COMRAM] unsigned int 
  2631 ;; Auto vars:     Size  Location     Type
  2632 ;;  p               1    5[COMRAM] PTR unsigned char 
  2633 ;;		 -> str(1), 
  2634 ;; Return value:  Size  Location     Type
  2635 ;;                  1    wreg      PTR void 
  2636 ;; Registers used:
  2637 ;;		wreg, fsr2l, fsr2h, status,2, status,0
  2638 ;; Tracked objects:
  2639 ;;		On entry : 0/0
  2640 ;;		On exit  : 0/0
  2641 ;;		Unchanged: 0/0
  2642 ;; Data sizes:     COMRAM   BANK0   BANK1   BANK2   BANK3   BANK4   BANK5   BANK6   BANK7   BANK8   BANK9  BANK10  BANK1
      +1  BANK12  BANK13  BANK14  BANK15
  2643 ;;      Params:         5       0       0       0       0       0       0       0       0       0       0       0       
      +0       0       0       0       0
  2644 ;;      Locals:         1       0       0       0       0       0       0       0       0       0       0       0       
      +0       0       0       0       0
  2645 ;;      Temps:          0       0       0       0       0       0       0       0       0       0       0       0       
      +0       0       0       0       0
  2646 ;;      Totals:         6       0       0       0       0       0       0       0       0       0       0       0       
      +0       0       0       0       0
  2647 ;;Total ram usage:        6 bytes
  2648 ;; Hardware stack levels used: 1
  2649 ;; This function calls:
  2650 ;;		Nothing
  2651 ;; This function is called by:
  2652 ;;		_convert_uint8_to_string
  2653 ;;		_convert_uint16_to_string
  2654 ;;		_convert_uint32_to_string
  2655 ;; This function uses a non-reentrant model
  2656 ;;
  2657                           
  2658                           	psect	text17
  2659   001DC6                     __ptext17:
  2660                           	callstack 0
  2661   001DC6                     _memset:
  2662                           	callstack 29
  2663   001DC6  C031  F036         	movff	memset@dest,memset@p
  2664   001DCA  EFED  F00E         	goto	l3005
  2665   001DCE                     l3001:
  2666   001DCE  5036               	movf	memset@p^0,w,c
  2667   001DD0  6ED9               	movwf	fsr2l,c
  2668   001DD2  6ADA               	clrf	fsr2h,c
  2669   001DD4  C032  FFDF         	movff	memset@c,indf2
  2670   001DD8  2A36               	incf	memset@p^0,f,c
  2671   001DDA                     l3005:
  2672   001DDA  0634               	decf	memset@n^0,f,c
  2673   001DDC  A0D8               	btfss	status,0,c
  2674   001DDE  0635               	decf	(memset@n+1)^0,f,c
  2675   001DE0  2834               	incf	memset@n^0,w,c
  2676   001DE2  E106               	bnz	u1731
  2677   001DE4  2835               	incf	(memset@n+1)^0,w,c
  2678   001DE6  A4D8               	btfss	status,2,c
  2679   001DE8  EFF8  F00E         	goto	u1731
  2680   001DEC  EFFA  F00E         	goto	u1730
  2681   001DF0                     u1731:
  2682   001DF0  EFE7  F00E         	goto	l3001
  2683   001DF4                     u1730:
  2684   001DF4  0012               	return		;funcret
  2685   001DF6                     __end_of_memset:
  2686                           	callstack 0
  2687                           
  2688 ;; *************** function _app_init *****************
  2689 ;; Defined at:
  2690 ;;		line 47 in file "application.c"
  2691 ;; Parameters:    Size  Location     Type
  2692 ;;		None
  2693 ;; Auto vars:     Size  Location     Type
  2694 ;;		None
  2695 ;; Return value:  Size  Location     Type
  2696 ;;                  1    wreg      void 
  2697 ;; Registers used:
  2698 ;;		wreg, fsr2l, fsr2h, status,2, status,0, prodl, prodh, cstack
  2699 ;; Tracked objects:
  2700 ;;		On entry : 0/0
  2701 ;;		On exit  : 0/0
  2702 ;;		Unchanged: 0/0
  2703 ;; Data sizes:     COMRAM   BANK0   BANK1   BANK2   BANK3   BANK4   BANK5   BANK6   BANK7   BANK8   BANK9  BANK10  BANK1
      +1  BANK12  BANK13  BANK14  BANK15
  2704 ;;      Params:         0       0       0       0       0       0       0       0       0       0       0       0       
      +0       0       0       0       0
  2705 ;;      Locals:         0       0       0       0       0       0       0       0       0       0       0       0       
      +0       0       0       0       0
  2706 ;;      Temps:          0       0       0       0       0       0       0       0       0       0       0       0       
      +0       0       0       0       0
  2707 ;;      Totals:         0       0       0       0       0       0       0       0       0       0       0       0       
      +0       0       0       0       0
  2708 ;;Total ram usage:        0 bytes
  2709 ;; Hardware stack levels used: 1
  2710 ;; Hardware stack levels required when called: 5
  2711 ;; This function calls:
  2712 ;;		_ecu_layer_initialize
  2713 ;; This function is called by:
  2714 ;;		_main
  2715 ;; This function uses a non-reentrant model
  2716 ;;
  2717                           
  2718                           	psect	text18
  2719   001E2E                     __ptext18:
  2720                           	callstack 0
  2721   001E2E                     _app_init:
  2722                           	callstack 25
  2723   001E2E                     
  2724                           ;application.c: 50:      ecu_layer_initialize();
  2725   001E2E  EC0E  F00F         	call	_ecu_layer_initialize	;wreg free
  2726   001E32  0012               	return		;funcret
  2727   001E34                     __end_of_app_init:
  2728                           	callstack 0
  2729                           
  2730 ;; *************** function _ecu_layer_initialize *****************
  2731 ;; Defined at:
  2732 ;;		line 142 in file "ECU_Layer/ecu_layer_init.c"
  2733 ;; Parameters:    Size  Location     Type
  2734 ;;		None
  2735 ;; Auto vars:     Size  Location     Type
  2736 ;;		None
  2737 ;; Return value:  Size  Location     Type
  2738 ;;                  1    wreg      void 
  2739 ;; Registers used:
  2740 ;;		wreg, fsr2l, fsr2h, status,2, status,0, prodl, prodh, cstack
  2741 ;; Tracked objects:
  2742 ;;		On entry : 0/0
  2743 ;;		On exit  : 0/0
  2744 ;;		Unchanged: 0/0
  2745 ;; Data sizes:     COMRAM   BANK0   BANK1   BANK2   BANK3   BANK4   BANK5   BANK6   BANK7   BANK8   BANK9  BANK10  BANK1
      +1  BANK12  BANK13  BANK14  BANK15
  2746 ;;      Params:         0       0       0       0       0       0       0       0       0       0       0       0       
      +0       0       0       0       0
  2747 ;;      Locals:         0       0       0       0       0       0       0       0       0       0       0       0       
      +0       0       0       0       0
  2748 ;;      Temps:          0       0       0       0       0       0       0       0       0       0       0       0       
      +0       0       0       0       0
  2749 ;;      Totals:         0       0       0       0       0       0       0       0       0       0       0       0       
      +0       0       0       0       0
  2750 ;;Total ram usage:        0 bytes
  2751 ;; Hardware stack levels used: 1
  2752 ;; Hardware stack levels required when called: 4
  2753 ;; This function calls:
  2754 ;;		_keypad_init
  2755 ;;		_lcd_init
  2756 ;; This function is called by:
  2757 ;;		_app_init
  2758 ;; This function uses a non-reentrant model
  2759 ;;
  2760                           
  2761                           	psect	text19
  2762   001E1C                     __ptext19:
  2763                           	callstack 0
  2764   001E1C                     _ecu_layer_initialize:
  2765                           	callstack 25
  2766   001E1C                     
  2767                           ;ECU_Layer/ecu_layer_init.c: 144:     keypad_init(&keypad_1);
  2768   001E1C  0E29               	movlw	low _keypad_1
  2769   001E1E  6E3C               	movwf	keypad_init@keypad_obj^0,c
  2770   001E20  EC06  F00D         	call	_keypad_init	;wreg free
  2771                           
  2772                           ;ECU_Layer/ecu_layer_init.c: 145:     lcd_init(&lcd_1);
  2773   001E24  0E1F               	movlw	low _lcd_1
  2774   001E26  6E43               	movwf	lcd_init@lcd_obj^0,c
  2775   001E28  EC8F  F00A         	call	_lcd_init	;wreg free
  2776   001E2C  0012               	return		;funcret
  2777   001E2E                     __end_of_ecu_layer_initialize:
  2778                           	callstack 0
  2779                           
  2780 ;; *************** function _lcd_init *****************
  2781 ;; Defined at:
  2782 ;;		line 24 in file "ECU_Layer/Char_LCD/ecu_char_LDC.c"
  2783 ;; Parameters:    Size  Location     Type
  2784 ;;  lcd_obj         1   18[COMRAM] PTR const struct .
  2785 ;;		 -> lcd_1(10), 
  2786 ;; Auto vars:     Size  Location     Type
  2787 ;;  l_count         1   21[COMRAM] unsigned char 
  2788 ;;  ret             1   20[COMRAM] unsigned char 
  2789 ;; Return value:  Size  Location     Type
  2790 ;;                  1    wreg      unsigned char 
  2791 ;; Registers used:
  2792 ;;		wreg, fsr2l, fsr2h, status,2, status,0, prodl, prodh, cstack
  2793 ;; Tracked objects:
  2794 ;;		On entry : 0/0
  2795 ;;		On exit  : 0/0
  2796 ;;		Unchanged: 0/0
  2797 ;; Data sizes:     COMRAM   BANK0   BANK1   BANK2   BANK3   BANK4   BANK5   BANK6   BANK7   BANK8   BANK9  BANK10  BANK1
      +1  BANK12  BANK13  BANK14  BANK15
  2798 ;;      Params:         1       0       0       0       0       0       0       0       0       0       0       0       
      +0       0       0       0       0
  2799 ;;      Locals:         2       0       0       0       0       0       0       0       0       0       0       0       
      +0       0       0       0       0
  2800 ;;      Temps:          1       0       0       0       0       0       0       0       0       0       0       0       
      +0       0       0       0       0
  2801 ;;      Totals:         4       0       0       0       0       0       0       0       0       0       0       0       
      +0       0       0       0       0
  2802 ;;Total ram usage:        4 bytes
  2803 ;; Hardware stack levels used: 1
  2804 ;; Hardware stack levels required when called: 3
  2805 ;; This function calls:
  2806 ;;		_gpio_pin_init
  2807 ;;		_lcd_send_command
  2808 ;; This function is called by:
  2809 ;;		_ecu_layer_initialize
  2810 ;; This function uses a non-reentrant model
  2811 ;;
  2812                           
  2813                           	psect	text20
  2814   00151E                     __ptext20:
  2815                           	callstack 0
  2816   00151E                     _lcd_init:
  2817                           	callstack 25
  2818   00151E                     
  2819                           ;ECU_Layer/Char_LCD/ecu_char_LDC.c: 26:     uint8 l_count=0;
  2820   00151E  0E00               	movlw	0
  2821   001520  6E46               	movwf	lcd_init@l_count^0,c
  2822                           
  2823                           ;ECU_Layer/Char_LCD/ecu_char_LDC.c: 27:     if(((void*)0) == lcd_obj)
  2824   001522  5043               	movf	lcd_init@lcd_obj^0,w,c
  2825   001524  A4D8               	btfss	status,2,c
  2826   001526  EF97  F00A         	goto	u1591
  2827   00152A  EF99  F00A         	goto	u1590
  2828   00152E                     u1591:
  2829   00152E  EF9B  F00A         	goto	l2859
  2830   001532                     u1590:
  2831   001532                     
  2832                           ;ECU_Layer/Char_LCD/ecu_char_LDC.c: 30:     }
  2833   001532  EFFD  F00A         	goto	l174
  2834   001536                     l2859:
  2835                           
  2836                           ;ECU_Layer/Char_LCD/ecu_char_LDC.c: 32:     {;ECU_Layer/Char_LCD/ecu_char_LDC.c: 33:    
      +                               ret=gpio_pin_init(&(lcd_obj->rs_pin));
  2837   001536  C043  F039         	movff	lcd_init@lcd_obj,gpio_pin_init@pin_confg
  2838   00153A  EC36  F00D         	call	_gpio_pin_init	;wreg free
  2839   00153E  6E45               	movwf	lcd_init@ret^0,c
  2840                           
  2841                           ;ECU_Layer/Char_LCD/ecu_char_LDC.c: 34:         ret=gpio_pin_init(&(lcd_obj->en_pin));
  2842   001540  2843               	incf	lcd_init@lcd_obj^0,w,c
  2843   001542  6E39               	movwf	gpio_pin_init@pin_confg^0,c
  2844   001544  EC36  F00D         	call	_gpio_pin_init	;wreg free
  2845   001548  6E45               	movwf	lcd_init@ret^0,c
  2846   00154A                     
  2847                           ;ECU_Layer/Char_LCD/ecu_char_LDC.c: 43:             for(l_count=0;l_count< 8;l_count++)
  2848   00154A  0E00               	movlw	0
  2849   00154C  6E46               	movwf	lcd_init@l_count^0,c
  2850   00154E                     l2867:
  2851   00154E  5043               	movf	lcd_init@lcd_obj^0,w,c
  2852   001550  2446               	addwf	lcd_init@l_count^0,w,c
  2853   001552  0F02               	addlw	2
  2854   001554  6E39               	movwf	gpio_pin_init@pin_confg^0,c
  2855   001556  EC36  F00D         	call	_gpio_pin_init	;wreg free
  2856   00155A                     
  2857                           ;ECU_Layer/Char_LCD/ecu_char_LDC.c: 46:             }
  2858   00155A  2A46               	incf	lcd_init@l_count^0,f,c
  2859   00155C  0E07               	movlw	7
  2860   00155E  6446               	cpfsgt	lcd_init@l_count^0,c
  2861   001560  EFB4  F00A         	goto	u1601
  2862   001564  EFB6  F00A         	goto	u1600
  2863   001568                     u1601:
  2864   001568  EFA7  F00A         	goto	l2867
  2865   00156C                     u1600:
  2866   00156C                     
  2867                           ;ECU_Layer/Char_LCD/ecu_char_LDC.c: 50:          _delay((unsigned long)((20)*(8000000/40
      +                          00.0)));
  2868   00156C  0E34               	movlw	52
  2869   00156E  6E44               	movwf	??_lcd_init^0,c
  2870   001570  0EF2               	movlw	242
  2871   001572                     u2127:
  2872   001572  2EE8               	decfsz	wreg,f,c
  2873   001574  D7FE               	bra	u2127
  2874   001576  2E44               	decfsz	??_lcd_init^0,f,c
  2875   001578  D7FC               	bra	u2127
  2876   00157A  C043  F03F         	movff	lcd_init@lcd_obj,lcd_send_command@lcd_obj
  2877   00157E  0E38               	movlw	56
  2878   001580  6E40               	movwf	lcd_send_command@cmd^0,c
  2879   001582  ECB7  F00D         	call	_lcd_send_command	;wreg free
  2880   001586                     
  2881                           ;ECU_Layer/Char_LCD/ecu_char_LDC.c: 53:         _delay((unsigned long)((5)*(8000000/4000
      +                          .0)));
  2882   001586  0E0D               	movlw	13
  2883   001588  6E44               	movwf	??_lcd_init^0,c
  2884   00158A  0EFC               	movlw	252
  2885   00158C                     u2137:
  2886   00158C  2EE8               	decfsz	wreg,f,c
  2887   00158E  D7FE               	bra	u2137
  2888   001590  2E44               	decfsz	??_lcd_init^0,f,c
  2889   001592  D7FC               	bra	u2137
  2890   001594  C043  F03F         	movff	lcd_init@lcd_obj,lcd_send_command@lcd_obj
  2891   001598  0E38               	movlw	56
  2892   00159A  6E40               	movwf	lcd_send_command@cmd^0,c
  2893   00159C  ECB7  F00D         	call	_lcd_send_command	;wreg free
  2894   0015A0                     
  2895                           ;ECU_Layer/Char_LCD/ecu_char_LDC.c: 56:         _delay((unsigned long)((150)*(8000000/40
      +                          00000.0)));
  2896   0015A0  0E64               	movlw	100
  2897   0015A2                     u2147:
  2898   0015A2  2EE8               	decfsz	wreg,f,c
  2899   0015A4  D7FE               	bra	u2147
  2900   0015A6  C043  F03F         	movff	lcd_init@lcd_obj,lcd_send_command@lcd_obj
  2901   0015AA  0E38               	movlw	56
  2902   0015AC  6E40               	movwf	lcd_send_command@cmd^0,c
  2903   0015AE  ECB7  F00D         	call	_lcd_send_command	;wreg free
  2904   0015B2  C043  F03F         	movff	lcd_init@lcd_obj,lcd_send_command@lcd_obj
  2905   0015B6  0E01               	movlw	1
  2906   0015B8  6E40               	movwf	lcd_send_command@cmd^0,c
  2907   0015BA  ECB7  F00D         	call	_lcd_send_command	;wreg free
  2908   0015BE  C043  F03F         	movff	lcd_init@lcd_obj,lcd_send_command@lcd_obj
  2909   0015C2  0E02               	movlw	2
  2910   0015C4  6E40               	movwf	lcd_send_command@cmd^0,c
  2911   0015C6  ECB7  F00D         	call	_lcd_send_command	;wreg free
  2912   0015CA  C043  F03F         	movff	lcd_init@lcd_obj,lcd_send_command@lcd_obj
  2913   0015CE  0E06               	movlw	6
  2914   0015D0  6E40               	movwf	lcd_send_command@cmd^0,c
  2915   0015D2  ECB7  F00D         	call	_lcd_send_command	;wreg free
  2916   0015D6  C043  F03F         	movff	lcd_init@lcd_obj,lcd_send_command@lcd_obj
  2917   0015DA  0E0C               	movlw	12
  2918   0015DC  6E40               	movwf	lcd_send_command@cmd^0,c
  2919   0015DE  ECB7  F00D         	call	_lcd_send_command	;wreg free
  2920   0015E2  C043  F03F         	movff	lcd_init@lcd_obj,lcd_send_command@lcd_obj
  2921   0015E6  0E38               	movlw	56
  2922   0015E8  6E40               	movwf	lcd_send_command@cmd^0,c
  2923   0015EA  ECB7  F00D         	call	_lcd_send_command	;wreg free
  2924   0015EE  C043  F03F         	movff	lcd_init@lcd_obj,lcd_send_command@lcd_obj
  2925   0015F2  0E80               	movlw	128
  2926   0015F4  6E40               	movwf	lcd_send_command@cmd^0,c
  2927   0015F6  ECB7  F00D         	call	_lcd_send_command	;wreg free
  2928   0015FA                     l174:
  2929   0015FA  0012               	return		;funcret
  2930   0015FC                     __end_of_lcd_init:
  2931                           	callstack 0
  2932                           
  2933 ;; *************** function _lcd_send_command *****************
  2934 ;; Defined at:
  2935 ;;		line 84 in file "ECU_Layer/Char_LCD/ecu_char_LDC.c"
  2936 ;; Parameters:    Size  Location     Type
  2937 ;;  lcd_obj         1   14[COMRAM] PTR const struct .
  2938 ;;		 -> lcd_1(10), 
  2939 ;;  cmd             1   15[COMRAM] unsigned char 
  2940 ;; Auto vars:     Size  Location     Type
  2941 ;;  ret             1   17[COMRAM] unsigned char 
  2942 ;;  l_count         1   16[COMRAM] unsigned char 
  2943 ;; Return value:  Size  Location     Type
  2944 ;;                  1    wreg      unsigned char 
  2945 ;; Registers used:
  2946 ;;		wreg, fsr2l, fsr2h, status,2, status,0, prodl, prodh, cstack
  2947 ;; Tracked objects:
  2948 ;;		On entry : 0/0
  2949 ;;		On exit  : 0/0
  2950 ;;		Unchanged: 0/0
  2951 ;; Data sizes:     COMRAM   BANK0   BANK1   BANK2   BANK3   BANK4   BANK5   BANK6   BANK7   BANK8   BANK9  BANK10  BANK1
      +1  BANK12  BANK13  BANK14  BANK15
  2952 ;;      Params:         2       0       0       0       0       0       0       0       0       0       0       0       
      +0       0       0       0       0
  2953 ;;      Locals:         2       0       0       0       0       0       0       0       0       0       0       0       
      +0       0       0       0       0
  2954 ;;      Temps:          0       0       0       0       0       0       0       0       0       0       0       0       
      +0       0       0       0       0
  2955 ;;      Totals:         4       0       0       0       0       0       0       0       0       0       0       0       
      +0       0       0       0       0
  2956 ;;Total ram usage:        4 bytes
  2957 ;; Hardware stack levels used: 1
  2958 ;; Hardware stack levels required when called: 2
  2959 ;; This function calls:
  2960 ;;		_gpio_pin_write
  2961 ;;		_lcd_send_bits
  2962 ;;		_lcd_send_enable_signal
  2963 ;; This function is called by:
  2964 ;;		_lcd_init
  2965 ;;		_lcd_set_cursor_position
  2966 ;;		_main
  2967 ;;		_lcd_send_custom_char
  2968 ;; This function uses a non-reentrant model
  2969 ;;
  2970                           
  2971                           	psect	text21
  2972   001B6E                     __ptext21:
  2973                           	callstack 0
  2974   001B6E                     _lcd_send_command:
  2975                           	callstack 26
  2976   001B6E                     
  2977                           ;ECU_Layer/Char_LCD/ecu_char_LDC.c: 86:     uint8 l_count=0;
  2978   001B6E  0E00               	movlw	0
  2979   001B70  6E41               	movwf	lcd_send_command@l_count^0,c
  2980                           
  2981                           ;ECU_Layer/Char_LCD/ecu_char_LDC.c: 87:     if(((void*)0) == lcd_obj)
  2982   001B72  503F               	movf	lcd_send_command@lcd_obj^0,w,c
  2983   001B74  A4D8               	btfss	status,2,c
  2984   001B76  EFBF  F00D         	goto	u1481
  2985   001B7A  EFC1  F00D         	goto	u1480
  2986   001B7E                     u1481:
  2987   001B7E  EFC5  F00D         	goto	l2799
  2988   001B82                     u1480:
  2989   001B82                     
  2990                           ;ECU_Layer/Char_LCD/ecu_char_LDC.c: 88:     {;ECU_Layer/Char_LCD/ecu_char_LDC.c: 89:    
      +                               ret=((Std_RetrunType) 0x00);
  2991   001B82  0E00               	movlw	0
  2992   001B84  6E42               	movwf	lcd_send_command@ret^0,c
  2993                           
  2994                           ;ECU_Layer/Char_LCD/ecu_char_LDC.c: 90:     }
  2995   001B86  EFD8  F00D         	goto	l2801
  2996   001B8A                     l2799:
  2997                           
  2998                           ;ECU_Layer/Char_LCD/ecu_char_LDC.c: 92:     {;ECU_Layer/Char_LCD/ecu_char_LDC.c: 93:    
      +                               ret=gpio_pin_write(&(lcd_obj->rs_pin),GPIO_STATE_LOW);
  2999   001B8A  C03F  F031         	movff	lcd_send_command@lcd_obj,gpio_pin_write@pin_confg
  3000   001B8E  0E00               	movlw	0
  3001   001B90  6E32               	movwf	gpio_pin_write@pin_state^0,c
  3002   001B92  EC93  F009         	call	_gpio_pin_write	;wreg free
  3003   001B96  6E42               	movwf	lcd_send_command@ret^0,c
  3004                           
  3005                           ;ECU_Layer/Char_LCD/ecu_char_LDC.c: 101:             ret=lcd_send_bits(lcd_obj,cmd);
  3006   001B98  C03F  F039         	movff	lcd_send_command@lcd_obj,lcd_send_bits@lcd_obj
  3007   001B9C  C040  F03A         	movff	lcd_send_command@cmd,lcd_send_bits@data_cmd
  3008   001BA0  EC92  F00D         	call	_lcd_send_bits	;wreg free
  3009   001BA4  6E42               	movwf	lcd_send_command@ret^0,c
  3010                           
  3011                           ;ECU_Layer/Char_LCD/ecu_char_LDC.c: 102:             ret=lcd_send_enable_signal(lcd_obj)
      +                          ;
  3012   001BA6  C03F  F039         	movff	lcd_send_command@lcd_obj,lcd_send_enable_signal@lcd_obj
  3013   001BAA  ECFB  F00E         	call	_lcd_send_enable_signal	;wreg free
  3014   001BAE  6E42               	movwf	lcd_send_command@ret^0,c
  3015   001BB0                     l2801:
  3016                           
  3017                           ;ECU_Layer/Char_LCD/ecu_char_LDC.c: 107:     return ret;
  3018   001BB0  5042               	movf	lcd_send_command@ret^0,w,c
  3019   001BB2  0012               	return		;funcret
  3020   001BB4                     __end_of_lcd_send_command:
  3021                           	callstack 0
  3022                           
  3023 ;; *************** function _lcd_send_enable_signal *****************
  3024 ;; Defined at:
  3025 ;;		line 320 in file "ECU_Layer/Char_LCD/ecu_char_LDC.c"
  3026 ;; Parameters:    Size  Location     Type
  3027 ;;  lcd_obj         1    8[COMRAM] PTR const struct .
  3028 ;;		 -> lcd_1(10), 
  3029 ;; Auto vars:     Size  Location     Type
  3030 ;;  ret             1    9[COMRAM] unsigned char 
  3031 ;; Return value:  Size  Location     Type
  3032 ;;                  1    wreg      unsigned char 
  3033 ;; Registers used:
  3034 ;;		wreg, fsr2l, fsr2h, status,2, status,0, prodl, prodh, cstack
  3035 ;; Tracked objects:
  3036 ;;		On entry : 0/0
  3037 ;;		On exit  : 0/0
  3038 ;;		Unchanged: 0/0
  3039 ;; Data sizes:     COMRAM   BANK0   BANK1   BANK2   BANK3   BANK4   BANK5   BANK6   BANK7   BANK8   BANK9  BANK10  BANK1
      +1  BANK12  BANK13  BANK14  BANK15
  3040 ;;      Params:         1       0       0       0       0       0       0       0       0       0       0       0       
      +0       0       0       0       0
  3041 ;;      Locals:         1       0       0       0       0       0       0       0       0       0       0       0       
      +0       0       0       0       0
  3042 ;;      Temps:          0       0       0       0       0       0       0       0       0       0       0       0       
      +0       0       0       0       0
  3043 ;;      Totals:         2       0       0       0       0       0       0       0       0       0       0       0       
      +0       0       0       0       0
  3044 ;;Total ram usage:        2 bytes
  3045 ;; Hardware stack levels used: 1
  3046 ;; Hardware stack levels required when called: 1
  3047 ;; This function calls:
  3048 ;;		_gpio_pin_write
  3049 ;; This function is called by:
  3050 ;;		_lcd_send_command
  3051 ;;		_lcd_send_char_data
  3052 ;; This function uses a non-reentrant model
  3053 ;;
  3054                           
  3055                           	psect	text22
  3056   001DF6                     __ptext22:
  3057                           	callstack 0
  3058   001DF6                     _lcd_send_enable_signal:
  3059                           	callstack 26
  3060   001DF6  2839               	incf	lcd_send_enable_signal@lcd_obj^0,w,c
  3061   001DF8  6E31               	movwf	gpio_pin_write@pin_confg^0,c
  3062   001DFA  0E01               	movlw	1
  3063   001DFC  6E32               	movwf	gpio_pin_write@pin_state^0,c
  3064   001DFE  EC93  F009         	call	_gpio_pin_write	;wreg free
  3065   001E02                     
  3066                           ;ECU_Layer/Char_LCD/ecu_char_LDC.c: 325:     _delay((unsigned long)((5)*(8000000/4000000
      +                          .0)));
  3067   001E02  0E03               	movlw	3
  3068   001E04                     u2157:
  3069   001E04  2EE8               	decfsz	wreg,f,c
  3070   001E06  D7FE               	bra	u2157
  3071   001E08  0000               	nop	
  3072   001E0A                     
  3073                           ;ECU_Layer/Char_LCD/ecu_char_LDC.c: 326:     ret=gpio_pin_write(&(lcd_obj->en_pin),GPIO_
      +                          STATE_LOW);
  3074   001E0A  2839               	incf	lcd_send_enable_signal@lcd_obj^0,w,c
  3075   001E0C  6E31               	movwf	gpio_pin_write@pin_confg^0,c
  3076   001E0E  0E00               	movlw	0
  3077   001E10  6E32               	movwf	gpio_pin_write@pin_state^0,c
  3078   001E12  EC93  F009         	call	_gpio_pin_write	;wreg free
  3079   001E16  6E3A               	movwf	lcd_send_enable_signal@ret^0,c
  3080   001E18                     
  3081                           ;ECU_Layer/Char_LCD/ecu_char_LDC.c: 328:     return ret;
  3082   001E18  503A               	movf	lcd_send_enable_signal@ret^0,w,c
  3083   001E1A  0012               	return		;funcret
  3084   001E1C                     __end_of_lcd_send_enable_signal:
  3085                           	callstack 0
  3086                           
  3087 ;; *************** function _lcd_send_bits *****************
  3088 ;; Defined at:
  3089 ;;		line 290 in file "ECU_Layer/Char_LCD/ecu_char_LDC.c"
  3090 ;; Parameters:    Size  Location     Type
  3091 ;;  lcd_obj         1    8[COMRAM] PTR const struct .
  3092 ;;		 -> lcd_1(10), 
  3093 ;;  data_cmd        1    9[COMRAM] unsigned char 
  3094 ;; Auto vars:     Size  Location     Type
  3095 ;;  l_count         1   13[COMRAM] unsigned char 
  3096 ;;  ret             1   12[COMRAM] unsigned char 
  3097 ;; Return value:  Size  Location     Type
  3098 ;;                  1    wreg      unsigned char 
  3099 ;; Registers used:
  3100 ;;		wreg, fsr2l, fsr2h, status,2, status,0, prodl, prodh, cstack
  3101 ;; Tracked objects:
  3102 ;;		On entry : 0/0
  3103 ;;		On exit  : 0/0
  3104 ;;		Unchanged: 0/0
  3105 ;; Data sizes:     COMRAM   BANK0   BANK1   BANK2   BANK3   BANK4   BANK5   BANK6   BANK7   BANK8   BANK9  BANK10  BANK1
      +1  BANK12  BANK13  BANK14  BANK15
  3106 ;;      Params:         2       0       0       0       0       0       0       0       0       0       0       0       
      +0       0       0       0       0
  3107 ;;      Locals:         2       0       0       0       0       0       0       0       0       0       0       0       
      +0       0       0       0       0
  3108 ;;      Temps:          2       0       0       0       0       0       0       0       0       0       0       0       
      +0       0       0       0       0
  3109 ;;      Totals:         6       0       0       0       0       0       0       0       0       0       0       0       
      +0       0       0       0       0
  3110 ;;Total ram usage:        6 bytes
  3111 ;; Hardware stack levels used: 1
  3112 ;; Hardware stack levels required when called: 1
  3113 ;; This function calls:
  3114 ;;		_gpio_pin_write
  3115 ;; This function is called by:
  3116 ;;		_lcd_send_command
  3117 ;;		_lcd_send_char_data
  3118 ;; This function uses a non-reentrant model
  3119 ;;
  3120                           
  3121                           	psect	text23
  3122   001B24                     __ptext23:
  3123                           	callstack 0
  3124   001B24                     _lcd_send_bits:
  3125                           	callstack 26
  3126   001B24                     
  3127                           ;ECU_Layer/Char_LCD/ecu_char_LDC.c: 293:      uint8 l_count=0;
  3128   001B24  0E00               	movlw	0
  3129   001B26  6E3E               	movwf	lcd_send_bits@l_count^0,c
  3130                           
  3131                           ;ECU_Layer/Char_LCD/ecu_char_LDC.c: 303:             for(l_count=0;l_count < 8; l_count+
      +                          +)
  3132   001B28  0E00               	movlw	0
  3133   001B2A  6E3E               	movwf	lcd_send_bits@l_count^0,c
  3134   001B2C                     l2663:
  3135                           
  3136                           ;ECU_Layer/Char_LCD/ecu_char_LDC.c: 304:             {;ECU_Layer/Char_LCD/ecu_char_LDC.c
      +                          : 305:                 ret=gpio_pin_write(&(lcd_obj->lcd_8bit_pins[l_count]),(data_cmd >
      +                          > l_count) & (uint8)0x01);
  3137   001B2C  5039               	movf	lcd_send_bits@lcd_obj^0,w,c
  3138   001B2E  243E               	addwf	lcd_send_bits@l_count^0,w,c
  3139   001B30  0F02               	addlw	2
  3140   001B32  6E31               	movwf	gpio_pin_write@pin_confg^0,c
  3141   001B34  C03E  F03B         	movff	lcd_send_bits@l_count,??_lcd_send_bits
  3142   001B38  C03A  F03C         	movff	lcd_send_bits@data_cmd,??_lcd_send_bits+1
  3143   001B3C  2A3B               	incf	??_lcd_send_bits^0,f,c
  3144   001B3E  EFA3  F00D         	goto	u1274
  3145   001B42                     u1275:
  3146   001B42  90D8               	bcf	status,0,c
  3147   001B44  323C               	rrcf	(??_lcd_send_bits+1)^0,f,c
  3148   001B46                     u1274:
  3149   001B46  2E3B               	decfsz	??_lcd_send_bits^0,f,c
  3150   001B48  EFA1  F00D         	goto	u1275
  3151   001B4C  503C               	movf	(??_lcd_send_bits+1)^0,w,c
  3152   001B4E  0B01               	andlw	1
  3153   001B50  6E32               	movwf	gpio_pin_write@pin_state^0,c
  3154   001B52  EC93  F009         	call	_gpio_pin_write	;wreg free
  3155   001B56  6E3D               	movwf	lcd_send_bits@ret^0,c
  3156   001B58                     
  3157                           ;ECU_Layer/Char_LCD/ecu_char_LDC.c: 306:             }
  3158   001B58  2A3E               	incf	lcd_send_bits@l_count^0,f,c
  3159   001B5A  0E07               	movlw	7
  3160   001B5C  643E               	cpfsgt	lcd_send_bits@l_count^0,c
  3161   001B5E  EFB3  F00D         	goto	u1281
  3162   001B62  EFB5  F00D         	goto	u1280
  3163   001B66                     u1281:
  3164   001B66  EF96  F00D         	goto	l2663
  3165   001B6A                     u1280:
  3166   001B6A                     
  3167                           ;ECU_Layer/Char_LCD/ecu_char_LDC.c: 310:    return ret;
  3168   001B6A  503D               	movf	lcd_send_bits@ret^0,w,c
  3169   001B6C  0012               	return		;funcret
  3170   001B6E                     __end_of_lcd_send_bits:
  3171                           	callstack 0
  3172                           
  3173 ;; *************** function _keypad_init *****************
  3174 ;; Defined at:
  3175 ;;		line 28 in file "ECU_Layer/KeyPad/ecu_keypad.c"
  3176 ;; Parameters:    Size  Location     Type
  3177 ;;  keypad_obj      1   11[COMRAM] PTR const struct .
  3178 ;;		 -> keypad_1(8), 
  3179 ;; Auto vars:     Size  Location     Type
  3180 ;;  column_count    1   13[COMRAM] unsigned char 
  3181 ;;  row_count       1   12[COMRAM] unsigned char 
  3182 ;;  ret             1    0        unsigned char 
  3183 ;; Return value:  Size  Location     Type
  3184 ;;                  1    wreg      unsigned char 
  3185 ;; Registers used:
  3186 ;;		wreg, fsr2l, fsr2h, status,2, status,0, prodl, prodh, cstack
  3187 ;; Tracked objects:
  3188 ;;		On entry : 0/0
  3189 ;;		On exit  : 0/0
  3190 ;;		Unchanged: 0/0
  3191 ;; Data sizes:     COMRAM   BANK0   BANK1   BANK2   BANK3   BANK4   BANK5   BANK6   BANK7   BANK8   BANK9  BANK10  BANK1
      +1  BANK12  BANK13  BANK14  BANK15
  3192 ;;      Params:         1       0       0       0       0       0       0       0       0       0       0       0       
      +0       0       0       0       0
  3193 ;;      Locals:         2       0       0       0       0       0       0       0       0       0       0       0       
      +0       0       0       0       0
  3194 ;;      Temps:          0       0       0       0       0       0       0       0       0       0       0       0       
      +0       0       0       0       0
  3195 ;;      Totals:         3       0       0       0       0       0       0       0       0       0       0       0       
      +0       0       0       0       0
  3196 ;;Total ram usage:        3 bytes
  3197 ;; Hardware stack levels used: 1
  3198 ;; Hardware stack levels required when called: 2
  3199 ;; This function calls:
  3200 ;;		_gpio_pin_direction_init
  3201 ;;		_gpio_pin_init
  3202 ;; This function is called by:
  3203 ;;		_ecu_layer_initialize
  3204 ;; This function uses a non-reentrant model
  3205 ;;
  3206                           
  3207                           	psect	text24
  3208   001A0C                     __ptext24:
  3209                           	callstack 0
  3210   001A0C                     _keypad_init:
  3211                           	callstack 26
  3212   001A0C                     
  3213                           ;ECU_Layer/KeyPad/ecu_keypad.c: 30:     uint8 row_count=0,column_count=0;
  3214   001A0C  0E00               	movlw	0
  3215   001A0E  6E3D               	movwf	keypad_init@row_count^0,c
  3216   001A10  0E00               	movlw	0
  3217   001A12  6E3E               	movwf	keypad_init@column_count^0,c
  3218                           
  3219                           ;ECU_Layer/KeyPad/ecu_keypad.c: 31:     if(((void*)0) == keypad_obj)
  3220   001A14  503C               	movf	keypad_init@keypad_obj^0,w,c
  3221   001A16  A4D8               	btfss	status,2,c
  3222   001A18  EF10  F00D         	goto	u1621
  3223   001A1C  EF12  F00D         	goto	u1620
  3224   001A20                     u1621:
  3225   001A20  EF14  F00D         	goto	l2911
  3226   001A24                     u1620:
  3227   001A24                     
  3228                           ;ECU_Layer/KeyPad/ecu_keypad.c: 34:     }
  3229   001A24  EF35  F00D         	goto	l361
  3230   001A28                     l2911:
  3231                           
  3232                           ;ECU_Layer/KeyPad/ecu_keypad.c: 36:     {;ECU_Layer/KeyPad/ecu_keypad.c: 37:         for
      +                          (row_count=0;row_count<4;row_count++)
  3233   001A28  0E00               	movlw	0
  3234   001A2A  6E3D               	movwf	keypad_init@row_count^0,c
  3235   001A2C                     l2917:
  3236   001A2C  503C               	movf	keypad_init@keypad_obj^0,w,c
  3237   001A2E  243D               	addwf	keypad_init@row_count^0,w,c
  3238   001A30  6E39               	movwf	gpio_pin_init@pin_confg^0,c
  3239   001A32  EC36  F00D         	call	_gpio_pin_init	;wreg free
  3240   001A36                     
  3241                           ;ECU_Layer/KeyPad/ecu_keypad.c: 40:         }
  3242   001A36  2A3D               	incf	keypad_init@row_count^0,f,c
  3243   001A38  0E03               	movlw	3
  3244   001A3A  643D               	cpfsgt	keypad_init@row_count^0,c
  3245   001A3C  EF22  F00D         	goto	u1631
  3246   001A40  EF24  F00D         	goto	u1630
  3247   001A44                     u1631:
  3248   001A44  EF16  F00D         	goto	l2917
  3249   001A48                     u1630:
  3250   001A48                     
  3251                           ;ECU_Layer/KeyPad/ecu_keypad.c: 41:         for(column_count=0;column_count<4;column_cou
      +                          nt++)
  3252   001A48  0E00               	movlw	0
  3253   001A4A  6E3E               	movwf	keypad_init@column_count^0,c
  3254   001A4C                     l2929:
  3255   001A4C  503C               	movf	keypad_init@keypad_obj^0,w,c
  3256   001A4E  243E               	addwf	keypad_init@column_count^0,w,c
  3257   001A50  0F04               	addlw	4
  3258   001A52  6E31               	movwf	gpio_pin_direction_init@pin_confg^0,c
  3259   001A54  EC00  F009         	call	_gpio_pin_direction_init	;wreg free
  3260   001A58                     
  3261                           ;ECU_Layer/KeyPad/ecu_keypad.c: 44:         }
  3262   001A58  2A3E               	incf	keypad_init@column_count^0,f,c
  3263   001A5A  0E03               	movlw	3
  3264   001A5C  643E               	cpfsgt	keypad_init@column_count^0,c
  3265   001A5E  EF33  F00D         	goto	u1641
  3266   001A62  EF35  F00D         	goto	u1640
  3267   001A66                     u1641:
  3268   001A66  EF26  F00D         	goto	l2929
  3269   001A6A                     u1640:
  3270   001A6A                     l361:
  3271   001A6A  0012               	return		;funcret
  3272   001A6C                     __end_of_keypad_init:
  3273                           	callstack 0
  3274                           
  3275 ;; *************** function _gpio_pin_init *****************
  3276 ;; Defined at:
  3277 ;;		line 170 in file "MCAL_Layer/GPIO/hal_gpio.c"
  3278 ;; Parameters:    Size  Location     Type
  3279 ;;  pin_confg       1    8[COMRAM] PTR const struct .
  3280 ;;		 -> lcd_1$lcd_8bit_pins(8), lcd_1(10), keypad_1$keypad_rows_pins(4), keypad_1(8), 
  3281 ;;		 -> relay_init@pin_obj(1), led_init@pin_cfg(1), 
  3282 ;; Auto vars:     Size  Location     Type
  3283 ;;  ret             1   10[COMRAM] unsigned char 
  3284 ;; Return value:  Size  Location     Type
  3285 ;;                  1    wreg      unsigned char 
  3286 ;; Registers used:
  3287 ;;		wreg, fsr2l, fsr2h, status,2, status,0, prodl, prodh, cstack
  3288 ;; Tracked objects:
  3289 ;;		On entry : 0/0
  3290 ;;		On exit  : 0/0
  3291 ;;		Unchanged: 0/0
  3292 ;; Data sizes:     COMRAM   BANK0   BANK1   BANK2   BANK3   BANK4   BANK5   BANK6   BANK7   BANK8   BANK9  BANK10  BANK1
      +1  BANK12  BANK13  BANK14  BANK15
  3293 ;;      Params:         1       0       0       0       0       0       0       0       0       0       0       0       
      +0       0       0       0       0
  3294 ;;      Locals:         1       0       0       0       0       0       0       0       0       0       0       0       
      +0       0       0       0       0
  3295 ;;      Temps:          1       0       0       0       0       0       0       0       0       0       0       0       
      +0       0       0       0       0
  3296 ;;      Totals:         3       0       0       0       0       0       0       0       0       0       0       0       
      +0       0       0       0       0
  3297 ;;Total ram usage:        3 bytes
  3298 ;; Hardware stack levels used: 1
  3299 ;; Hardware stack levels required when called: 1
  3300 ;; This function calls:
  3301 ;;		_gpio_pin_direction_init
  3302 ;;		_gpio_pin_write
  3303 ;; This function is called by:
  3304 ;;		_lcd_init
  3305 ;;		_keypad_init
  3306 ;;		_seven_segment_init
  3307 ;;		_dc_motor_init
  3308 ;;		_led_init
  3309 ;;		_relay_init
  3310 ;; This function uses a non-reentrant model
  3311 ;;
  3312                           
  3313                           	psect	text25
  3314   001A6C                     __ptext25:
  3315                           	callstack 0
  3316   001A6C                     _gpio_pin_init:
  3317                           	callstack 26
  3318   001A6C                     
  3319                           ;MCAL_Layer/GPIO/hal_gpio.c: 172:     if(pin_confg == ((void*)0) ||(pin_confg->pin > 8 -
      +                          1))
  3320   001A6C  5039               	movf	gpio_pin_init@pin_confg^0,w,c
  3321   001A6E  B4D8               	btfsc	status,2,c
  3322   001A70  EF3C  F00D         	goto	u1461
  3323   001A74  EF3E  F00D         	goto	u1460
  3324   001A78                     u1461:
  3325   001A78  EF4E  F00D         	goto	l2787
  3326   001A7C                     u1460:
  3327   001A7C  5039               	movf	gpio_pin_init@pin_confg^0,w,c
  3328   001A7E  6ED9               	movwf	fsr2l,c
  3329   001A80  6ADA               	clrf	fsr2h,c
  3330   001A82  30DF               	rrcf	223,w,c
  3331   001A84  32E8               	rrcf	wreg,f,c
  3332   001A86  32E8               	rrcf	wreg,f,c
  3333   001A88  0B07               	andlw	7
  3334   001A8A  6E3A               	movwf	??_gpio_pin_init^0,c
  3335   001A8C  0E07               	movlw	7
  3336   001A8E  643A               	cpfsgt	??_gpio_pin_init^0,c
  3337   001A90  EF4C  F00D         	goto	u1471
  3338   001A94  EF4E  F00D         	goto	u1470
  3339   001A98                     u1471:
  3340   001A98  EF52  F00D         	goto	l2789
  3341   001A9C                     u1470:
  3342   001A9C                     l2787:
  3343                           
  3344                           ;MCAL_Layer/GPIO/hal_gpio.c: 173:     {;MCAL_Layer/GPIO/hal_gpio.c: 174:         ret=((S
      +                          td_RetrunType) 0x00);
  3345   001A9C  0E00               	movlw	0
  3346   001A9E  6E3B               	movwf	gpio_pin_init@ret^0,c
  3347                           
  3348                           ;MCAL_Layer/GPIO/hal_gpio.c: 175:     }
  3349   001AA0  EF63  F00D         	goto	l2791
  3350   001AA4                     l2789:
  3351                           
  3352                           ;MCAL_Layer/GPIO/hal_gpio.c: 177:     {;MCAL_Layer/GPIO/hal_gpio.c: 178:         ret=gpi
      +                          o_pin_direction_init(pin_confg);
  3353   001AA4  C039  F031         	movff	gpio_pin_init@pin_confg,gpio_pin_direction_init@pin_confg
  3354   001AA8  EC00  F009         	call	_gpio_pin_direction_init	;wreg free
  3355   001AAC  6E3B               	movwf	gpio_pin_init@ret^0,c
  3356                           
  3357                           ;MCAL_Layer/GPIO/hal_gpio.c: 179:         ret=gpio_pin_write(pin_confg,pin_confg->state)
      +                          ;
  3358   001AAE  C039  F031         	movff	gpio_pin_init@pin_confg,gpio_pin_write@pin_confg
  3359   001AB2  5039               	movf	gpio_pin_init@pin_confg^0,w,c
  3360   001AB4  6ED9               	movwf	fsr2l,c
  3361   001AB6  6ADA               	clrf	fsr2h,c
  3362   001AB8  0E00               	movlw	0
  3363   001ABA  BEDF               	btfsc	indf2,7,c
  3364   001ABC  0E01               	movlw	1
  3365   001ABE  6E32               	movwf	gpio_pin_write@pin_state^0,c
  3366   001AC0  EC93  F009         	call	_gpio_pin_write	;wreg free
  3367   001AC4  6E3B               	movwf	gpio_pin_init@ret^0,c
  3368   001AC6                     l2791:
  3369                           
  3370                           ;MCAL_Layer/GPIO/hal_gpio.c: 183:     return ret;
  3371   001AC6  503B               	movf	gpio_pin_init@ret^0,w,c
  3372   001AC8  0012               	return		;funcret
  3373   001ACA                     __end_of_gpio_pin_init:
  3374                           	callstack 0
  3375                           
  3376 ;; *************** function _gpio_pin_write *****************
  3377 ;; Defined at:
  3378 ;;		line 83 in file "MCAL_Layer/GPIO/hal_gpio.c"
  3379 ;; Parameters:    Size  Location     Type
  3380 ;;  pin_confg       1    0[COMRAM] PTR const struct .
  3381 ;;		 -> lcd_1$lcd_8bit_pins(8), lcd_1(10), keypad_1$keypad_rows_pins(4), keypad_1(8), 
  3382 ;;		 -> relay_off@pin_obj(1), relay_on@pin_obj(1), relay_init@pin_obj(1), led_off@pin_cfg(1), 
  3383 ;;		 -> led_on@pin_cfg(1), led_init@pin_cfg(1), 
  3384 ;;  pin_state       1    1[COMRAM] enum E2982
  3385 ;; Auto vars:     Size  Location     Type
  3386 ;;  ret             1    7[COMRAM] unsigned char 
  3387 ;; Return value:  Size  Location     Type
  3388 ;;                  1    wreg      unsigned char 
  3389 ;; Registers used:
  3390 ;;		wreg, fsr2l, fsr2h, status,2, status,0, prodl, prodh
  3391 ;; Tracked objects:
  3392 ;;		On entry : 0/0
  3393 ;;		On exit  : 0/0
  3394 ;;		Unchanged: 0/0
  3395 ;; Data sizes:     COMRAM   BANK0   BANK1   BANK2   BANK3   BANK4   BANK5   BANK6   BANK7   BANK8   BANK9  BANK10  BANK1
      +1  BANK12  BANK13  BANK14  BANK15
  3396 ;;      Params:         2       0       0       0       0       0       0       0       0       0       0       0       
      +0       0       0       0       0
  3397 ;;      Locals:         1       0       0       0       0       0       0       0       0       0       0       0       
      +0       0       0       0       0
  3398 ;;      Temps:          5       0       0       0       0       0       0       0       0       0       0       0       
      +0       0       0       0       0
  3399 ;;      Totals:         8       0       0       0       0       0       0       0       0       0       0       0       
      +0       0       0       0       0
  3400 ;;Total ram usage:        8 bytes
  3401 ;; Hardware stack levels used: 1
  3402 ;; This function calls:
  3403 ;;		Nothing
  3404 ;; This function is called by:
  3405 ;;		_lcd_send_command
  3406 ;;		_lcd_send_char_data
  3407 ;;		_lcd_send_bits
  3408 ;;		_lcd_send_enable_signal
  3409 ;;		_keypad_get_key_pressed
  3410 ;;		_gpio_pin_init
  3411 ;;		_seven_segment_display_number
  3412 ;;		_dc_motor_move_right
  3413 ;;		_dc_motor_move_left
  3414 ;;		_dc_motor_stop
  3415 ;;		_led_on
  3416 ;;		_led_off
  3417 ;;		_relay_on
  3418 ;;		_relay_off
  3419 ;; This function uses a non-reentrant model
  3420 ;;
  3421                           
  3422                           	psect	text26
  3423   001326                     __ptext26:
  3424                           	callstack 0
  3425   001326                     _gpio_pin_write:
  3426                           	callstack 26
  3427   001326                     
  3428                           ;MCAL_Layer/GPIO/hal_gpio.c: 84:     Std_RetrunType ret = ((Std_RetrunType) 0x01);
  3429   001326  0E01               	movlw	1
  3430   001328  6E38               	movwf	gpio_pin_write@ret^0,c
  3431                           
  3432                           ;MCAL_Layer/GPIO/hal_gpio.c: 85:     if(pin_confg == ((void*)0) ||(pin_confg->pin > 8 -1
      +                          ))
  3433   00132A  5031               	movf	gpio_pin_write@pin_confg^0,w,c
  3434   00132C  B4D8               	btfsc	status,2,c
  3435   00132E  EF9B  F009         	goto	u1171
  3436   001332  EF9D  F009         	goto	u1170
  3437   001336                     u1171:
  3438   001336  EFAD  F009         	goto	l2617
  3439   00133A                     u1170:
  3440   00133A  5031               	movf	gpio_pin_write@pin_confg^0,w,c
  3441   00133C  6ED9               	movwf	fsr2l,c
  3442   00133E  6ADA               	clrf	fsr2h,c
  3443   001340  30DF               	rrcf	223,w,c
  3444   001342  32E8               	rrcf	wreg,f,c
  3445   001344  32E8               	rrcf	wreg,f,c
  3446   001346  0B07               	andlw	7
  3447   001348  6E33               	movwf	??_gpio_pin_write^0,c
  3448   00134A  0E07               	movlw	7
  3449   00134C  6433               	cpfsgt	??_gpio_pin_write^0,c
  3450   00134E  EFAB  F009         	goto	u1181
  3451   001352  EFAD  F009         	goto	u1180
  3452   001356                     u1181:
  3453   001356  EF04  F00A         	goto	l2625
  3454   00135A                     u1180:
  3455   00135A                     l2617:
  3456                           
  3457                           ;MCAL_Layer/GPIO/hal_gpio.c: 86:     {;MCAL_Layer/GPIO/hal_gpio.c: 87:         ret=((Std
      +                          _RetrunType) 0x00);
  3458   00135A  0E00               	movlw	0
  3459   00135C  6E38               	movwf	gpio_pin_write@ret^0,c
  3460                           
  3461                           ;MCAL_Layer/GPIO/hal_gpio.c: 88:     }
  3462   00135E  EF19  F00A         	goto	l2627
  3463   001362                     l2619:
  3464                           
  3465                           ;MCAL_Layer/GPIO/hal_gpio.c: 94:                 (*lat_reg[pin_confg->port] &=~ ((uint8)
      +                           1<<pin_confg->pin));
  3466   001362  5031               	movf	gpio_pin_write@pin_confg^0,w,c
  3467   001364  6ED9               	movwf	fsr2l,c
  3468   001366  6ADA               	clrf	fsr2h,c
  3469   001368  30DF               	rrcf	223,w,c
  3470   00136A  32E8               	rrcf	wreg,f,c
  3471   00136C  32E8               	rrcf	wreg,f,c
  3472   00136E  0B07               	andlw	7
  3473   001370  6E33               	movwf	??_gpio_pin_write^0,c
  3474   001372  0E01               	movlw	1
  3475   001374  6E34               	movwf	(??_gpio_pin_write+1)^0,c
  3476   001376  2A33               	incf	??_gpio_pin_write^0,f,c
  3477   001378  EFC0  F009         	goto	u1194
  3478   00137C                     u1195:
  3479   00137C  90D8               	bcf	status,0,c
  3480   00137E  3634               	rlcf	(??_gpio_pin_write+1)^0,f,c
  3481   001380                     u1194:
  3482   001380  2E33               	decfsz	??_gpio_pin_write^0,f,c
  3483   001382  EFBE  F009         	goto	u1195
  3484   001386  5034               	movf	(??_gpio_pin_write+1)^0,w,c
  3485   001388  0AFF               	xorlw	255
  3486   00138A  6E35               	movwf	(??_gpio_pin_write+2)^0,c
  3487   00138C  5031               	movf	gpio_pin_write@pin_confg^0,w,c
  3488   00138E  6ED9               	movwf	fsr2l,c
  3489   001390  6ADA               	clrf	fsr2h,c
  3490   001392  50DF               	movf	223,w,c
  3491   001394  0B07               	andlw	7
  3492   001396  0D02               	mullw	2
  3493   001398  50F3               	movf	243,w,c
  3494   00139A  0F0B               	addlw	low _lat_reg
  3495   00139C  6ED9               	movwf	fsr2l,c
  3496   00139E  6ADA               	clrf	fsr2h,c
  3497   0013A0  CFDE F036          	movff	postinc2,??_gpio_pin_write+3
  3498   0013A4  CFDD F037          	movff	postdec2,??_gpio_pin_write+4
  3499   0013A8  C036  FFD9         	movff	??_gpio_pin_write+3,fsr2l
  3500   0013AC  C037  FFDA         	movff	??_gpio_pin_write+4,fsr2h
  3501   0013B0  5035               	movf	(??_gpio_pin_write+2)^0,w,c
  3502   0013B2  16DF               	andwf	indf2,f,c
  3503                           
  3504                           ;MCAL_Layer/GPIO/hal_gpio.c: 95:                 break;
  3505   0013B4  EF19  F00A         	goto	l2627
  3506   0013B8                     l2621:
  3507                           
  3508                           ;MCAL_Layer/GPIO/hal_gpio.c: 97:                 (*lat_reg[pin_confg->port] |= ((uint8) 
      +                          1<<pin_confg->pin));
  3509   0013B8  5031               	movf	gpio_pin_write@pin_confg^0,w,c
  3510   0013BA  6ED9               	movwf	fsr2l,c
  3511   0013BC  6ADA               	clrf	fsr2h,c
  3512   0013BE  30DF               	rrcf	223,w,c
  3513   0013C0  32E8               	rrcf	wreg,f,c
  3514   0013C2  32E8               	rrcf	wreg,f,c
  3515   0013C4  0B07               	andlw	7
  3516   0013C6  6E33               	movwf	??_gpio_pin_write^0,c
  3517   0013C8  0E01               	movlw	1
  3518   0013CA  6E34               	movwf	(??_gpio_pin_write+1)^0,c
  3519   0013CC  2A33               	incf	??_gpio_pin_write^0,f,c
  3520   0013CE  EFEB  F009         	goto	u1204
  3521   0013D2                     u1205:
  3522   0013D2  90D8               	bcf	status,0,c
  3523   0013D4  3634               	rlcf	(??_gpio_pin_write+1)^0,f,c
  3524   0013D6                     u1204:
  3525   0013D6  2E33               	decfsz	??_gpio_pin_write^0,f,c
  3526   0013D8  EFE9  F009         	goto	u1205
  3527   0013DC  5031               	movf	gpio_pin_write@pin_confg^0,w,c
  3528   0013DE  6ED9               	movwf	fsr2l,c
  3529   0013E0  6ADA               	clrf	fsr2h,c
  3530   0013E2  50DF               	movf	223,w,c
  3531   0013E4  0B07               	andlw	7
  3532   0013E6  0D02               	mullw	2
  3533   0013E8  50F3               	movf	243,w,c
  3534   0013EA  0F0B               	addlw	low _lat_reg
  3535   0013EC  6ED9               	movwf	fsr2l,c
  3536   0013EE  6ADA               	clrf	fsr2h,c
  3537   0013F0  CFDE F035          	movff	postinc2,??_gpio_pin_write+2
  3538   0013F4  CFDD F036          	movff	postdec2,??_gpio_pin_write+3
  3539   0013F8  C035  FFD9         	movff	??_gpio_pin_write+2,fsr2l
  3540   0013FC  C036  FFDA         	movff	??_gpio_pin_write+3,fsr2h
  3541   001400  5034               	movf	(??_gpio_pin_write+1)^0,w,c
  3542   001402  12DF               	iorwf	indf2,f,c
  3543                           
  3544                           ;MCAL_Layer/GPIO/hal_gpio.c: 98:                 break;
  3545   001404  EF19  F00A         	goto	l2627
  3546   001408                     l2625:
  3547   001408  5032               	movf	gpio_pin_write@pin_state^0,w,c
  3548   00140A  6E33               	movwf	??_gpio_pin_write^0,c
  3549   00140C  6A34               	clrf	(??_gpio_pin_write+1)^0,c
  3550                           
  3551                           ; Switch on 2 bytes has been partitioned into a top level switch of size 1, and 1 sub-sw
      +                          itches
  3552                           ; Switch size 1, requested type "simple"
  3553                           ; Number of cases is 1, Range of values is 0 to 0
  3554                           ; switch strategies available:
  3555                           ; Name         Instructions Cycles
  3556                           ; simple_byte            4     3 (average)
  3557                           ;	Chosen strategy is simple_byte
  3558   00140E  5034               	movf	(??_gpio_pin_write+1)^0,w,c
  3559   001410  0A00               	xorlw	0	; case 0
  3560   001412  B4D8               	btfsc	status,2,c
  3561   001414  EF0E  F00A         	goto	l3385
  3562   001418  EFAD  F009         	goto	l2617
  3563   00141C                     l3385:
  3564                           
  3565                           ; Switch size 1, requested type "simple"
  3566                           ; Number of cases is 2, Range of values is 0 to 1
  3567                           ; switch strategies available:
  3568                           ; Name         Instructions Cycles
  3569                           ; simple_byte            7     4 (average)
  3570                           ;	Chosen strategy is simple_byte
  3571   00141C  5033               	movf	??_gpio_pin_write^0,w,c
  3572   00141E  0A00               	xorlw	0	; case 0
  3573   001420  B4D8               	btfsc	status,2,c
  3574   001422  EFB1  F009         	goto	l2619
  3575   001426  0A01               	xorlw	1	; case 1
  3576   001428  B4D8               	btfsc	status,2,c
  3577   00142A  EFDC  F009         	goto	l2621
  3578   00142E  EFAD  F009         	goto	l2617
  3579   001432                     l2627:
  3580                           
  3581                           ;MCAL_Layer/GPIO/hal_gpio.c: 106:     return ret;
  3582   001432  5038               	movf	gpio_pin_write@ret^0,w,c
  3583   001434  0012               	return		;funcret
  3584   001436                     __end_of_gpio_pin_write:
  3585                           	callstack 0
  3586                           
  3587 ;; *************** function _gpio_pin_direction_init *****************
  3588 ;; Defined at:
  3589 ;;		line 19 in file "MCAL_Layer/GPIO/hal_gpio.c"
  3590 ;; Parameters:    Size  Location     Type
  3591 ;;  pin_confg       1    0[COMRAM] PTR const struct .
  3592 ;;		 -> lcd_1$lcd_8bit_pins(8), lcd_1(10), keypad_1$keypad_columns_pins(4), keypad_1$keypad_rows_pins(4), 
  3593 ;;		 -> keypad_1(8), relay_init@pin_obj(1), led_init@pin_cfg(1), 
  3594 ;; Auto vars:     Size  Location     Type
  3595 ;;  ret             1    6[COMRAM] unsigned char 
  3596 ;; Return value:  Size  Location     Type
  3597 ;;                  1    wreg      unsigned char 
  3598 ;; Registers used:
  3599 ;;		wreg, fsr2l, fsr2h, status,2, status,0, prodl, prodh
  3600 ;; Tracked objects:
  3601 ;;		On entry : 0/0
  3602 ;;		On exit  : 0/0
  3603 ;;		Unchanged: 0/0
  3604 ;; Data sizes:     COMRAM   BANK0   BANK1   BANK2   BANK3   BANK4   BANK5   BANK6   BANK7   BANK8   BANK9  BANK10  BANK1
      +1  BANK12  BANK13  BANK14  BANK15
  3605 ;;      Params:         1       0       0       0       0       0       0       0       0       0       0       0       
      +0       0       0       0       0
  3606 ;;      Locals:         1       0       0       0       0       0       0       0       0       0       0       0       
      +0       0       0       0       0
  3607 ;;      Temps:          5       0       0       0       0       0       0       0       0       0       0       0       
      +0       0       0       0       0
  3608 ;;      Totals:         7       0       0       0       0       0       0       0       0       0       0       0       
      +0       0       0       0       0
  3609 ;;Total ram usage:        7 bytes
  3610 ;; Hardware stack levels used: 1
  3611 ;; This function calls:
  3612 ;;		Nothing
  3613 ;; This function is called by:
  3614 ;;		_keypad_init
  3615 ;;		_gpio_pin_init
  3616 ;;		_button_init
  3617 ;; This function uses a non-reentrant model
  3618 ;;
  3619                           
  3620                           	psect	text27
  3621   001200                     __ptext27:
  3622                           	callstack 0
  3623   001200                     _gpio_pin_direction_init:
  3624                           	callstack 26
  3625   001200                     
  3626                           ;MCAL_Layer/GPIO/hal_gpio.c: 20:     Std_RetrunType ret = ((Std_RetrunType) 0x01);
  3627   001200  0E01               	movlw	1
  3628   001202  6E37               	movwf	gpio_pin_direction_init@ret^0,c
  3629                           
  3630                           ;MCAL_Layer/GPIO/hal_gpio.c: 21:     if(pin_confg == ((void*)0) || (pin_confg->pin > 8 -
      +                          1))
  3631   001204  5031               	movf	gpio_pin_direction_init@pin_confg^0,w,c
  3632   001206  B4D8               	btfsc	status,2,c
  3633   001208  EF08  F009         	goto	u1211
  3634   00120C  EF0A  F009         	goto	u1210
  3635   001210                     u1211:
  3636   001210  EF1A  F009         	goto	l2639
  3637   001214                     u1210:
  3638   001214  5031               	movf	gpio_pin_direction_init@pin_confg^0,w,c
  3639   001216  6ED9               	movwf	fsr2l,c
  3640   001218  6ADA               	clrf	fsr2h,c
  3641   00121A  30DF               	rrcf	223,w,c
  3642   00121C  32E8               	rrcf	wreg,f,c
  3643   00121E  32E8               	rrcf	wreg,f,c
  3644   001220  0B07               	andlw	7
  3645   001222  6E32               	movwf	??_gpio_pin_direction_init^0,c
  3646   001224  0E07               	movlw	7
  3647   001226  6432               	cpfsgt	??_gpio_pin_direction_init^0,c
  3648   001228  EF18  F009         	goto	u1221
  3649   00122C  EF1A  F009         	goto	u1220
  3650   001230                     u1221:
  3651   001230  EF71  F009         	goto	l2647
  3652   001234                     u1220:
  3653   001234                     l2639:
  3654                           
  3655                           ;MCAL_Layer/GPIO/hal_gpio.c: 22:     {;MCAL_Layer/GPIO/hal_gpio.c: 23:         ret=((Std
      +                          _RetrunType) 0x00);
  3656   001234  0E00               	movlw	0
  3657   001236  6E37               	movwf	gpio_pin_direction_init@ret^0,c
  3658                           
  3659                           ;MCAL_Layer/GPIO/hal_gpio.c: 24:     }
  3660   001238  EF91  F009         	goto	l2649
  3661   00123C                     l2641:
  3662                           
  3663                           ;MCAL_Layer/GPIO/hal_gpio.c: 30:                 (*tris_reg[pin_confg->port] &=~ ((uint8
      +                          ) 1<<pin_confg->pin));
  3664   00123C  5031               	movf	gpio_pin_direction_init@pin_confg^0,w,c
  3665   00123E  6ED9               	movwf	fsr2l,c
  3666   001240  6ADA               	clrf	fsr2h,c
  3667   001242  30DF               	rrcf	223,w,c
  3668   001244  32E8               	rrcf	wreg,f,c
  3669   001246  32E8               	rrcf	wreg,f,c
  3670   001248  0B07               	andlw	7
  3671   00124A  6E32               	movwf	??_gpio_pin_direction_init^0,c
  3672   00124C  0E01               	movlw	1
  3673   00124E  6E33               	movwf	(??_gpio_pin_direction_init+1)^0,c
  3674   001250  2A32               	incf	??_gpio_pin_direction_init^0,f,c
  3675   001252  EF2D  F009         	goto	u1234
  3676   001256                     u1235:
  3677   001256  90D8               	bcf	status,0,c
  3678   001258  3633               	rlcf	(??_gpio_pin_direction_init+1)^0,f,c
  3679   00125A                     u1234:
  3680   00125A  2E32               	decfsz	??_gpio_pin_direction_init^0,f,c
  3681   00125C  EF2B  F009         	goto	u1235
  3682   001260  5033               	movf	(??_gpio_pin_direction_init+1)^0,w,c
  3683   001262  0AFF               	xorlw	255
  3684   001264  6E34               	movwf	(??_gpio_pin_direction_init+2)^0,c
  3685   001266  5031               	movf	gpio_pin_direction_init@pin_confg^0,w,c
  3686   001268  6ED9               	movwf	fsr2l,c
  3687   00126A  6ADA               	clrf	fsr2h,c
  3688   00126C  50DF               	movf	223,w,c
  3689   00126E  0B07               	andlw	7
  3690   001270  0D02               	mullw	2
  3691   001272  50F3               	movf	243,w,c
  3692   001274  0F15               	addlw	low _tris_reg
  3693   001276  6ED9               	movwf	fsr2l,c
  3694   001278  6ADA               	clrf	fsr2h,c
  3695   00127A  CFDE F035          	movff	postinc2,??_gpio_pin_direction_init+3
  3696   00127E  CFDD F036          	movff	postdec2,??_gpio_pin_direction_init+4
  3697   001282  C035  FFD9         	movff	??_gpio_pin_direction_init+3,fsr2l
  3698   001286  C036  FFDA         	movff	??_gpio_pin_direction_init+4,fsr2h
  3699   00128A  5034               	movf	(??_gpio_pin_direction_init+2)^0,w,c
  3700   00128C  16DF               	andwf	indf2,f,c
  3701                           
  3702                           ;MCAL_Layer/GPIO/hal_gpio.c: 31:                 break;
  3703   00128E  EF91  F009         	goto	l2649
  3704   001292                     l2643:
  3705                           
  3706                           ;MCAL_Layer/GPIO/hal_gpio.c: 33:                 (*tris_reg[pin_confg->port] |= ((uint8)
      +                           1<<pin_confg->pin));
  3707   001292  5031               	movf	gpio_pin_direction_init@pin_confg^0,w,c
  3708   001294  6ED9               	movwf	fsr2l,c
  3709   001296  6ADA               	clrf	fsr2h,c
  3710   001298  30DF               	rrcf	223,w,c
  3711   00129A  32E8               	rrcf	wreg,f,c
  3712   00129C  32E8               	rrcf	wreg,f,c
  3713   00129E  0B07               	andlw	7
  3714   0012A0  6E32               	movwf	??_gpio_pin_direction_init^0,c
  3715   0012A2  0E01               	movlw	1
  3716   0012A4  6E33               	movwf	(??_gpio_pin_direction_init+1)^0,c
  3717   0012A6  2A32               	incf	??_gpio_pin_direction_init^0,f,c
  3718   0012A8  EF58  F009         	goto	u1244
  3719   0012AC                     u1245:
  3720   0012AC  90D8               	bcf	status,0,c
  3721   0012AE  3633               	rlcf	(??_gpio_pin_direction_init+1)^0,f,c
  3722   0012B0                     u1244:
  3723   0012B0  2E32               	decfsz	??_gpio_pin_direction_init^0,f,c
  3724   0012B2  EF56  F009         	goto	u1245
  3725   0012B6  5031               	movf	gpio_pin_direction_init@pin_confg^0,w,c
  3726   0012B8  6ED9               	movwf	fsr2l,c
  3727   0012BA  6ADA               	clrf	fsr2h,c
  3728   0012BC  50DF               	movf	223,w,c
  3729   0012BE  0B07               	andlw	7
  3730   0012C0  0D02               	mullw	2
  3731   0012C2  50F3               	movf	243,w,c
  3732   0012C4  0F15               	addlw	low _tris_reg
  3733   0012C6  6ED9               	movwf	fsr2l,c
  3734   0012C8  6ADA               	clrf	fsr2h,c
  3735   0012CA  CFDE F034          	movff	postinc2,??_gpio_pin_direction_init+2
  3736   0012CE  CFDD F035          	movff	postdec2,??_gpio_pin_direction_init+3
  3737   0012D2  C034  FFD9         	movff	??_gpio_pin_direction_init+2,fsr2l
  3738   0012D6  C035  FFDA         	movff	??_gpio_pin_direction_init+3,fsr2h
  3739   0012DA  5033               	movf	(??_gpio_pin_direction_init+1)^0,w,c
  3740   0012DC  12DF               	iorwf	indf2,f,c
  3741                           
  3742                           ;MCAL_Layer/GPIO/hal_gpio.c: 34:                 break;
  3743   0012DE  EF91  F009         	goto	l2649
  3744   0012E2                     l2647:
  3745   0012E2  5031               	movf	gpio_pin_direction_init@pin_confg^0,w,c
  3746   0012E4  6ED9               	movwf	fsr2l,c
  3747   0012E6  6ADA               	clrf	fsr2h,c
  3748   0012E8  BCDF               	btfsc	indf2,6,c
  3749   0012EA  EF79  F009         	goto	u1251
  3750   0012EE  EF7C  F009         	goto	u1250
  3751   0012F2                     u1251:
  3752   0012F2  0E01               	movlw	1
  3753   0012F4  EF7D  F009         	goto	u1260
  3754   0012F8                     u1250:
  3755   0012F8  0E00               	movlw	0
  3756   0012FA                     u1260:
  3757   0012FA  6E32               	movwf	??_gpio_pin_direction_init^0,c
  3758   0012FC  6A33               	clrf	(??_gpio_pin_direction_init+1)^0,c
  3759                           
  3760                           ; Switch on 2 bytes has been partitioned into a top level switch of size 1, and 1 sub-sw
      +                          itches
  3761                           ; Switch size 1, requested type "simple"
  3762                           ; Number of cases is 1, Range of values is 0 to 0
  3763                           ; switch strategies available:
  3764                           ; Name         Instructions Cycles
  3765                           ; simple_byte            4     3 (average)
  3766                           ;	Chosen strategy is simple_byte
  3767   0012FE  5033               	movf	(??_gpio_pin_direction_init+1)^0,w,c
  3768   001300  0A00               	xorlw	0	; case 0
  3769   001302  B4D8               	btfsc	status,2,c
  3770   001304  EF86  F009         	goto	l3387
  3771   001308  EF1A  F009         	goto	l2639
  3772   00130C                     l3387:
  3773                           
  3774                           ; Switch size 1, requested type "simple"
  3775                           ; Number of cases is 2, Range of values is 0 to 1
  3776                           ; switch strategies available:
  3777                           ; Name         Instructions Cycles
  3778                           ; simple_byte            7     4 (average)
  3779                           ;	Chosen strategy is simple_byte
  3780   00130C  5032               	movf	??_gpio_pin_direction_init^0,w,c
  3781   00130E  0A00               	xorlw	0	; case 0
  3782   001310  B4D8               	btfsc	status,2,c
  3783   001312  EF1E  F009         	goto	l2641
  3784   001316  0A01               	xorlw	1	; case 1
  3785   001318  B4D8               	btfsc	status,2,c
  3786   00131A  EF49  F009         	goto	l2643
  3787   00131E  EF1A  F009         	goto	l2639
  3788   001322                     l2649:
  3789                           
  3790                           ;MCAL_Layer/GPIO/hal_gpio.c: 43:     return ret;
  3791   001322  5037               	movf	gpio_pin_direction_init@ret^0,w,c
  3792   001324  0012               	return		;funcret
  3793   001326                     __end_of_gpio_pin_direction_init:
  3794                           	callstack 0
  3795                           
  3796                           	psect	rparam
  3797   000000                     
  3798                           	psect	idloc
  3799                           
  3800                           ;Config register IDLOC0 @ 0x200000
  3801                           ;	unspecified, using default values
  3802   200000                     	org	2097152
  3803   200000  FF                 	db	255
  3804                           
  3805                           ;Config register IDLOC1 @ 0x200001
  3806                           ;	unspecified, using default values
  3807   200001                     	org	2097153
  3808   200001  FF                 	db	255
  3809                           
  3810                           ;Config register IDLOC2 @ 0x200002
  3811                           ;	unspecified, using default values
  3812   200002                     	org	2097154
  3813   200002  FF                 	db	255
  3814                           
  3815                           ;Config register IDLOC3 @ 0x200003
  3816                           ;	unspecified, using default values
  3817   200003                     	org	2097155
  3818   200003  FF                 	db	255
  3819                           
  3820                           ;Config register IDLOC4 @ 0x200004
  3821                           ;	unspecified, using default values
  3822   200004                     	org	2097156
  3823   200004  FF                 	db	255
  3824                           
  3825                           ;Config register IDLOC5 @ 0x200005
  3826                           ;	unspecified, using default values
  3827   200005                     	org	2097157
  3828   200005  FF                 	db	255
  3829                           
  3830                           ;Config register IDLOC6 @ 0x200006
  3831                           ;	unspecified, using default values
  3832   200006                     	org	2097158
  3833   200006  FF                 	db	255
  3834                           
  3835                           ;Config register IDLOC7 @ 0x200007
  3836                           ;	unspecified, using default values
  3837   200007                     	org	2097159
  3838   200007  FF                 	db	255
  3839                           
  3840                           	psect	config
  3841                           
  3842                           ; Padding undefined space
  3843   300000                     	org	3145728
  3844   300000  FF                 	db	255
  3845                           
  3846                           ;Config register CONFIG1H @ 0x300001
  3847                           ;	Oscillator Selection bits
  3848                           ;	OSC = HS, HS oscillator
  3849                           ;	Fail-Safe Clock Monitor Enable bit
  3850                           ;	FCMEN = OFF, Fail-Safe Clock Monitor disabled
  3851                           ;	Internal/External Oscillator Switchover bit
  3852                           ;	IESO = OFF, Oscillator Switchover mode disabled
  3853   300001                     	org	3145729
  3854   300001  02                 	db	2
  3855                           
  3856                           ;Config register CONFIG2L @ 0x300002
  3857                           ;	Power-up Timer Enable bit
  3858                           ;	PWRT = OFF, PWRT disabled
  3859                           ;	Brown-out Reset Enable bits
  3860                           ;	BOREN = OFF, Brown-out Reset disabled in hardware and software
  3861                           ;	Brown Out Reset Voltage bits
  3862                           ;	BORV = 1, 
  3863   300002                     	org	3145730
  3864   300002  09                 	db	9
  3865                           
  3866                           ;Config register CONFIG2H @ 0x300003
  3867                           ;	Watchdog Timer Enable bit
  3868                           ;	WDT = OFF, WDT disabled (control is placed on the SWDTEN bit)
  3869                           ;	Watchdog Timer Postscale Select bits
  3870                           ;	WDTPS = 32768, 1:32768
  3871   300003                     	org	3145731
  3872   300003  1E                 	db	30
  3873                           
  3874                           ; Padding undefined space
  3875   300004                     	org	3145732
  3876   300004  FF                 	db	255
  3877                           
  3878                           ;Config register CONFIG3H @ 0x300005
  3879                           ;	CCP2 MUX bit
  3880                           ;	CCP2MX = PORTC, CCP2 input/output is multiplexed with RC1
  3881                           ;	PORTB A/D Enable bit
  3882                           ;	PBADEN = OFF, PORTB<4:0> pins are configured as digital I/O on Reset
  3883                           ;	Low-Power Timer1 Oscillator Enable bit
  3884                           ;	LPT1OSC = OFF, Timer1 configured for higher power operation
  3885                           ;	MCLR Pin Enable bit
  3886                           ;	MCLRE = ON, MCLR pin enabled; RE3 input pin disabled
  3887   300005                     	org	3145733
  3888   300005  81                 	db	129
  3889                           
  3890                           ;Config register CONFIG4L @ 0x300006
  3891                           ;	Stack Full/Underflow Reset Enable bit
  3892                           ;	STVREN = ON, Stack full/underflow will cause Reset
  3893                           ;	Single-Supply ICSP Enable bit
  3894                           ;	LVP = OFF, Single-Supply ICSP disabled
  3895                           ;	Extended Instruction Set Enable bit
  3896                           ;	XINST = OFF, Instruction set extension and Indexed Addressing mode disabled (Legacy mo
      +                          de)
  3897                           ;	Background Debugger Enable bit
  3898                           ;	DEBUG = 0x1, unprogrammed default
  3899   300006                     	org	3145734
  3900   300006  81                 	db	129
  3901                           
  3902                           ; Padding undefined space
  3903   300007                     	org	3145735
  3904   300007  FF                 	db	255
  3905                           
  3906                           ;Config register CONFIG5L @ 0x300008
  3907                           ;	Code Protection bit
  3908                           ;	CP0 = OFF, Block 0 (000800-003FFFh) not code-protected
  3909                           ;	Code Protection bit
  3910                           ;	CP1 = OFF, Block 1 (004000-007FFFh) not code-protected
  3911                           ;	Code Protection bit
  3912                           ;	CP2 = OFF, Block 2 (008000-00BFFFh) not code-protected
  3913                           ;	Code Protection bit
  3914                           ;	CP3 = OFF, Block 3 (00C000-00FFFFh) not code-protected
  3915   300008                     	org	3145736
  3916   300008  0F                 	db	15
  3917                           
  3918                           ;Config register CONFIG5H @ 0x300009
  3919                           ;	Boot Block Code Protection bit
  3920                           ;	CPB = OFF, Boot block (000000-0007FFh) not code-protected
  3921                           ;	Data EEPROM Code Protection bit
  3922                           ;	CPD = OFF, Data EEPROM not code-protected
  3923   300009                     	org	3145737
  3924   300009  C0                 	db	192
  3925                           
  3926                           ;Config register CONFIG6L @ 0x30000A
  3927                           ;	Write Protection bit
  3928                           ;	WRT0 = OFF, Block 0 (000800-003FFFh) not write-protected
  3929                           ;	Write Protection bit
  3930                           ;	WRT1 = OFF, Block 1 (004000-007FFFh) not write-protected
  3931                           ;	Write Protection bit
  3932                           ;	WRT2 = OFF, Block 2 (008000-00BFFFh) not write-protected
  3933                           ;	Write Protection bit
  3934                           ;	WRT3 = OFF, Block 3 (00C000-00FFFFh) not write-protected
  3935   30000A                     	org	3145738
  3936   30000A  0F                 	db	15
  3937                           
  3938                           ;Config register CONFIG6H @ 0x30000B
  3939                           ;	Configuration Register Write Protection bit
  3940                           ;	WRTC = OFF, Configuration registers (300000-3000FFh) not write-protected
  3941                           ;	Boot Block Write Protection bit
  3942                           ;	WRTB = OFF, Boot Block (000000-0007FFh) not write-protected
  3943                           ;	Data EEPROM Write Protection bit
  3944                           ;	WRTD = OFF, Data EEPROM not write-protected
  3945   30000B                     	org	3145739
  3946   30000B  E0                 	db	224
  3947                           
  3948                           ;Config register CONFIG7L @ 0x30000C
  3949                           ;	Table Read Protection bit
  3950                           ;	EBTR0 = OFF, Block 0 (000800-003FFFh) not protected from table reads executed in other
      +                           blocks
  3951                           ;	Table Read Protection bit
  3952                           ;	EBTR1 = OFF, Block 1 (004000-007FFFh) not protected from table reads executed in other
      +                           blocks
  3953                           ;	Table Read Protection bit
  3954                           ;	EBTR2 = OFF, Block 2 (008000-00BFFFh) not protected from table reads executed in other
      +                           blocks
  3955                           ;	Table Read Protection bit
  3956                           ;	EBTR3 = OFF, Block 3 (00C000-00FFFFh) not protected from table reads executed in other
      +                           blocks
  3957   30000C                     	org	3145740
  3958   30000C  0F                 	db	15
  3959                           
  3960                           ;Config register CONFIG7H @ 0x30000D
  3961                           ;	Boot Block Table Read Protection bit
  3962                           ;	EBTRB = OFF, Boot Block (000000-0007FFh) not protected from table reads executed in ot
      +                          her blocks
  3963   30000D                     	org	3145741
  3964   30000D  40                 	db	64
  3965                           tosu	equ	0xFFF
  3966                           tosh	equ	0xFFE
  3967                           tosl	equ	0xFFD
  3968                           stkptr	equ	0xFFC
  3969                           pclatu	equ	0xFFB
  3970                           pclath	equ	0xFFA
  3971                           pcl	equ	0xFF9
  3972                           tblptru	equ	0xFF8
  3973                           tblptrh	equ	0xFF7
  3974                           tblptrl	equ	0xFF6
  3975                           tablat	equ	0xFF5
  3976                           prodh	equ	0xFF4
  3977                           prodl	equ	0xFF3
  3978                           indf0	equ	0xFEF
  3979                           postinc0	equ	0xFEE
  3980                           postdec0	equ	0xFED
  3981                           preinc0	equ	0xFEC
  3982                           plusw0	equ	0xFEB
  3983                           fsr0h	equ	0xFEA
  3984                           fsr0l	equ	0xFE9
  3985                           wreg	equ	0xFE8
  3986                           indf1	equ	0xFE7
  3987                           postinc1	equ	0xFE6
  3988                           postdec1	equ	0xFE5
  3989                           preinc1	equ	0xFE4
  3990                           plusw1	equ	0xFE3
  3991                           fsr1h	equ	0xFE2
  3992                           fsr1l	equ	0xFE1
  3993                           bsr	equ	0xFE0
  3994                           indf2	equ	0xFDF
  3995                           postinc2	equ	0xFDE
  3996                           postdec2	equ	0xFDD
  3997                           preinc2	equ	0xFDC
  3998                           plusw2	equ	0xFDB
  3999                           fsr2h	equ	0xFDA
  4000                           fsr2l	equ	0xFD9
  4001                           status	equ	0xFD8

Data Sizes:
    Strings     46
    Constant    16
    Data        48
    BSS         54
    Persistent  0
    Stack       0

Auto Spaces:
    Space          Size  Autos    Used
    COMRAM          127     44     114
    BANK0           128      0      32
    BANK1           256      0       0
    BANK2           256      0       0
    BANK3           256      0       0
    BANK4           256      0       0
    BANK5           256      0       0
    BANK6           256      0       0
    BANK7           256      0       0
    BANK8           256      0       0
    BANK9           256      0       0
    BANK10          256      0       0
    BANK11          256      0       0
    BANK12          256      0       0
    BANK13          256      0       0
    BANK14          256      0       0
    BANK15          128      0       0

Pointer List with Targets:

    convert_uint8_to_string@str	PTR unsigned char  size(1) Largest target is 1
		 -> str(COMRAM[1]), 

    f$.$buffer	PTR unsigned char  size(2) Largest target is 0

    f$.$source	PTR const unsigned char  size(2) Largest target is 0

    fputc@fp	PTR struct _IO_FILE size(1) Largest target is 12
		 -> sprintf@f(COMRAM[12]), 

    fputc@fp$.$buffer	PTR unsigned char  size(2) Largest target is 0

    fputc@fp$.$source	PTR const unsigned char  size(2) Largest target is 0

    gpio_pin_direction_init@pin_confg	PTR const struct . size(1) Largest target is 10
		 -> keypad_1(COMRAM[8]), keypad_1$keypad_columns_pins(COMRAM[4]), keypad_1$keypad_rows_pins(COMRAM[4]), lcd_1(COMRAM[10]), 
		 -> lcd_1$lcd_8bit_pins(COMRAM[8]), led_init@pin_cfg(COMRAM[1]), relay_init@pin_obj(COMRAM[1]), 

    gpio_pin_init@pin_confg	PTR const struct . size(1) Largest target is 10
		 -> keypad_1(COMRAM[8]), keypad_1$keypad_rows_pins(COMRAM[4]), lcd_1(COMRAM[10]), lcd_1$lcd_8bit_pins(COMRAM[8]), 
		 -> led_init@pin_cfg(COMRAM[1]), relay_init@pin_obj(COMRAM[1]), 

    gpio_pin_read@pin_confg	PTR const struct . size(1) Largest target is 8
		 -> keypad_1(COMRAM[8]), keypad_1$keypad_columns_pins(COMRAM[4]), 

    gpio_pin_read@pin_state	PTR enum E2982 size(1) Largest target is 1
		 -> button_read_state@pin_state(COMRAM[1]), keypad_get_key_pressed@col_pin_state(COMRAM[1]), 

    gpio_pin_write@pin_confg	PTR const struct . size(1) Largest target is 10
		 -> keypad_1(COMRAM[8]), keypad_1$keypad_rows_pins(COMRAM[4]), lcd_1(COMRAM[10]), lcd_1$lcd_8bit_pins(COMRAM[8]), 
		 -> led_init@pin_cfg(COMRAM[1]), led_off@pin_cfg(COMRAM[1]), led_on@pin_cfg(COMRAM[1]), relay_init@pin_obj(COMRAM[1]), 
		 -> relay_off@pin_obj(COMRAM[1]), relay_on@pin_obj(COMRAM[1]), 

    INT0_InterruptHandler	PTR FTN()void  size(2) Largest target is 1
		 -> NULL(), 

    INT1_InterruptHandler	PTR FTN()void  size(2) Largest target is 1
		 -> NULL(), 

    INT2_InterruptHandler	PTR FTN()void  size(2) Largest target is 1
		 -> NULL(), 

    interrupt_INTx_Disable@intr_obj$external_interrupt_handler	PTR FTN()void  size(2) Largest target is 0

    interrupt_INTx_Enable@intr_obj$external_interrupt_handler	PTR FTN()void  size(2) Largest target is 0

    interrupt_INTx_Init@intr_obj$external_interrupt_handler	PTR FTN()void  size(2) Largest target is 0

    keypad_get_key_pressed@keypad_obj	PTR const struct . size(1) Largest target is 8
		 -> keypad_1(COMRAM[8]), 

    keypad_get_key_pressed@value	PTR unsigned char  size(1) Largest target is 1
		 -> key(COMRAM[1]), 

    keypad_init@keypad_obj	PTR const struct . size(1) Largest target is 8
		 -> keypad_1(COMRAM[8]), 

    lat_reg	PTR volatile unsigned char [5] size(2) Largest target is 1
		 -> LATA(BITBIGSFRll[1]), LATB(BITBIGSFRlh[1]), LATC(BITBIGSFRlh[1]), LATD(BITBIGSFRlh[1]), 
		 -> LATE(BITBIGSFRlh[1]), 

    lcd_init@lcd_obj	PTR const struct . size(1) Largest target is 10
		 -> lcd_1(COMRAM[10]), 

    lcd_send_bits@lcd_obj	PTR const struct . size(1) Largest target is 10
		 -> lcd_1(COMRAM[10]), 

    lcd_send_char_data@lcd_obj	PTR const struct . size(1) Largest target is 10
		 -> lcd_1(COMRAM[10]), 

    lcd_send_char_data_position@lcd_obj	PTR const struct . size(1) Largest target is 10
		 -> lcd_1(COMRAM[10]), 

    lcd_send_command@lcd_obj	PTR const struct . size(1) Largest target is 10
		 -> lcd_1(COMRAM[10]), 

    lcd_send_enable_signal@lcd_obj	PTR const struct . size(1) Largest target is 10
		 -> lcd_1(COMRAM[10]), 

    lcd_send_string_data@lcd_obj	PTR const struct . size(1) Largest target is 10
		 -> lcd_1(COMRAM[10]), 

    lcd_send_string_data@str	PTR unsigned char  size(1) Largest target is 20
		 -> STR_4(CODE[6]), STR_5(CODE[9]), STR_6(CODE[8]), STR_7(CODE[20]), 

    lcd_send_string_data_position@lcd_obj	PTR const struct . size(1) Largest target is 10
		 -> lcd_1(COMRAM[10]), 

    lcd_send_string_data_position@str	PTR unsigned char  size(1) Largest target is 20
		 -> STR_4(CODE[6]), STR_5(CODE[9]), STR_6(CODE[8]), STR_7(CODE[20]), 

    lcd_set_cursor_position@lcd_obj	PTR const struct . size(1) Largest target is 10
		 -> lcd_1(COMRAM[10]), 

    memset@dest	PTR void  size(1) Largest target is 1
		 -> str(COMRAM[1]), 

    memset@p	PTR unsigned char  size(1) Largest target is 1
		 -> str(COMRAM[1]), 

    port_reg	PTR volatile unsigned char [5] size(2) Largest target is 1
		 -> PORTA(BITBIGSFRll[1]), PORTB(BITBIGSFRll[1]), PORTC(BITBIGSFRll[1]), PORTD(BITBIGSFRll[1]), 
		 -> PORTE(BITBIGSFRll[1]), 

    S1583$buffer	PTR unsigned char  size(2) Largest target is 0

    S1583$source	PTR const unsigned char  size(2) Largest target is 0

    S881$external_interrupt_handler	PTR FTN()void  size(2) Largest target is 0

    sp__memset	PTR void  size(1) Largest target is 1
		 -> str(COMRAM[1]), 

    sprintf@ap	PTR void [1] size(1) Largest target is 2
		 -> ?_sprintf(COMRAM[2]), 

    sprintf@fmt	PTR const unsigned char  size(1) Largest target is 3
		 -> STR_1(CODE[3]), STR_2(CODE[3]), STR_3(CODE[3]), 

    sprintf@s	PTR unsigned char  size(1) Largest target is 1
		 -> str(COMRAM[1]), 

    tris_reg	PTR volatile unsigned char [5] size(2) Largest target is 1
		 -> TRISA(BITBIGSFRll[1]), TRISB(BITBIGSFRhll[1]), TRISC(BITBIGSFRhll[1]), TRISD(BITBIGSFRhll[1]), 
		 -> TRISE(BITBIGSFRhll[1]), 

    vfpfcnvrt@ap	PTR PTR void  size(1) Largest target is 1
		 -> sprintf@ap(COMRAM[1]), 

    vfpfcnvrt@cp	PTR unsigned char  size(1) Largest target is 3
		 -> STR_1(CODE[3]), STR_2(CODE[3]), STR_3(CODE[3]), 

    vfpfcnvrt@fmt	PTR PTR unsigned char  size(1) Largest target is 1
		 -> vfprintf@cfmt(COMRAM[1]), 

    vfpfcnvrt@fp	PTR struct _IO_FILE size(1) Largest target is 12
		 -> sprintf@f(COMRAM[12]), 

    vfprintf@ap	PTR PTR void  size(1) Largest target is 1
		 -> sprintf@ap(COMRAM[1]), 

    vfprintf@cfmt	PTR unsigned char  size(1) Largest target is 3
		 -> STR_1(CODE[3]), STR_2(CODE[3]), STR_3(CODE[3]), 

    vfprintf@fmt	PTR const unsigned char  size(1) Largest target is 3
		 -> STR_1(CODE[3]), STR_2(CODE[3]), STR_3(CODE[3]), 

    vfprintf@fp	PTR struct _IO_FILE size(1) Largest target is 12
		 -> sprintf@f(COMRAM[12]), 


Critical Paths under _main in COMRAM

    _main->_convert_uint8_to_string
    _lcd_send_string_data_position->_lcd_set_cursor_position
    _lcd_send_string_data->_lcd_send_char_data
    _lcd_send_char_data_position->_lcd_set_cursor_position
    _lcd_set_cursor_position->_lcd_send_command
    _lcd_send_char_data->_lcd_send_bits
    _keypad_get_key_pressed->_gpio_pin_write
    _convert_uint8_to_string->_sprintf
    _sprintf->_vfprintf
    _vfprintf->_vfpfcnvrt
    _vfpfcnvrt->_abs
    _abs->___awmod
    _ecu_layer_initialize->_lcd_init
    _lcd_init->_lcd_send_command
    _lcd_send_command->_lcd_send_bits
    _lcd_send_enable_signal->_gpio_pin_write
    _lcd_send_bits->_gpio_pin_write
    _keypad_init->_gpio_pin_init
    _gpio_pin_init->_gpio_pin_write

Critical Paths under _main in BANK0

    None.

Critical Paths under _main in BANK1

    None.

Critical Paths under _main in BANK2

    None.

Critical Paths under _main in BANK3

    None.

Critical Paths under _main in BANK4

    None.

Critical Paths under _main in BANK5

    None.

Critical Paths under _main in BANK6

    None.

Critical Paths under _main in BANK7

    None.

Critical Paths under _main in BANK8

    None.

Critical Paths under _main in BANK9

    None.

Critical Paths under _main in BANK10

    None.

Critical Paths under _main in BANK11

    None.

Critical Paths under _main in BANK12

    None.

Critical Paths under _main in BANK13

    None.

Critical Paths under _main in BANK14

    None.

Critical Paths under _main in BANK15

    None.

Call Graph Tables:

 ---------------------------------------------------------------------------------
 (Depth) Function   	        Calls       Base Space   Used Autos Params    Refs
 ---------------------------------------------------------------------------------
 (0) _main                                                 0     0      0  103055
                           _app_init
            _convert_uint8_to_string
             _keypad_get_key_pressed
        _lcd_send_char_data_position
                   _lcd_send_command
      _lcd_send_string_data_position
 ---------------------------------------------------------------------------------
 (1) _lcd_send_string_data_position                        5     1      4   28010
                                             23 COMRAM     5     1      4
               _lcd_send_string_data
            _lcd_set_cursor_position
 ---------------------------------------------------------------------------------
 (2) _lcd_send_string_data                                 3     1      2   12112
                                             17 COMRAM     3     1      2
                 _lcd_send_char_data
 ---------------------------------------------------------------------------------
 (1) _lcd_send_char_data_position                          5     1      4   27136
                                             23 COMRAM     5     1      4
                 _lcd_send_char_data
            _lcd_set_cursor_position
 ---------------------------------------------------------------------------------
 (2) _lcd_set_cursor_position                              6     3      3   14524
                                             18 COMRAM     5     2      3
                   _lcd_send_command
 ---------------------------------------------------------------------------------
 (3) _lcd_send_char_data                                   3     1      2   11846
                                             14 COMRAM     3     1      2
                     _gpio_pin_write
                      _lcd_send_bits
             _lcd_send_enable_signal
 ---------------------------------------------------------------------------------
 (1) _keypad_get_key_pressed                               9     7      2    4600
                                              8 COMRAM     8     6      2
                      _gpio_pin_read
                     _gpio_pin_write
 ---------------------------------------------------------------------------------
 (2) _gpio_pin_read                                        7     5      2     460
                                              0 COMRAM     7     5      2
 ---------------------------------------------------------------------------------
 (1) _convert_uint8_to_string                              3     2      1    4559
                                             42 COMRAM     2     1      1
                             _memset
                            _sprintf
 ---------------------------------------------------------------------------------
 (2) _sprintf                                             19    15      4    3591
                                             25 COMRAM    17    13      4
                           _vfprintf
 ---------------------------------------------------------------------------------
 (3) _vfprintf                                             4     1      3    2936
                                             21 COMRAM     4     1      3
                          _vfpfcnvrt
 ---------------------------------------------------------------------------------
 (4) _vfpfcnvrt                                           11     8      3    2586
                                             10 COMRAM    11     8      3
                            ___awdiv
                            ___awmod
                                _abs
                              _fputc
 ---------------------------------------------------------------------------------
 (5) _fputc                                                8     5      3     782
                                              0 COMRAM     8     5      3
                              _putch
 ---------------------------------------------------------------------------------
 (6) _putch                                                1     1      0       0
 ---------------------------------------------------------------------------------
 (5) _abs                                                  4     2      2     142
                                              6 COMRAM     4     2      2
                            ___awmod (ARG)
 ---------------------------------------------------------------------------------
 (5) ___awmod                                              6     2      4     448
                                              0 COMRAM     6     2      4
 ---------------------------------------------------------------------------------
 (5) ___awdiv                                              8     4      4     452
                                              0 COMRAM     8     4      4
 ---------------------------------------------------------------------------------
 (2) _memset                                               6     1      5     780
                                              0 COMRAM     6     1      5
 ---------------------------------------------------------------------------------
 (1) _app_init                                             0     0      0   24927
               _ecu_layer_initialize
 ---------------------------------------------------------------------------------
 (2) _ecu_layer_initialize                                 0     0      0   24927
                        _keypad_init
                           _lcd_init
 ---------------------------------------------------------------------------------
 (3) _lcd_init                                             4     3      1   19252
                                             18 COMRAM     4     3      1
                      _gpio_pin_init
                   _lcd_send_command
 ---------------------------------------------------------------------------------
 (3) _lcd_send_command                                     4     2      2   13823
                                             14 COMRAM     4     2      2
                     _gpio_pin_write
                      _lcd_send_bits
             _lcd_send_enable_signal
 ---------------------------------------------------------------------------------
 (4) _lcd_send_enable_signal                               2     1      1    3744
                                              8 COMRAM     2     1      1
                     _gpio_pin_write
 ---------------------------------------------------------------------------------
 (4) _lcd_send_bits                                        6     4      2    3986
                                              8 COMRAM     6     4      2
                     _gpio_pin_write
 ---------------------------------------------------------------------------------
 (3) _keypad_init                                          4     3      1    5675
                                             11 COMRAM     3     2      1
            _gpio_pin_direction_init
                      _gpio_pin_init
 ---------------------------------------------------------------------------------
 (4) _gpio_pin_init                                        3     2      1    4978
                                              8 COMRAM     3     2      1
            _gpio_pin_direction_init
                     _gpio_pin_write
 ---------------------------------------------------------------------------------
 (5) _gpio_pin_write                                       8     6      2    3523
                                              0 COMRAM     8     6      2
 ---------------------------------------------------------------------------------
 (5) _gpio_pin_direction_init                              7     6      1     407
                                              0 COMRAM     7     6      1
 ---------------------------------------------------------------------------------
 Estimated maximum stack depth 6
 ---------------------------------------------------------------------------------

 Call Graph Graphs:

 _main (ROOT)
   _app_init
     _ecu_layer_initialize
       _keypad_init
         _gpio_pin_direction_init
         _gpio_pin_init
           _gpio_pin_direction_init
           _gpio_pin_write
       _lcd_init
         _gpio_pin_init
         _lcd_send_command
           _gpio_pin_write
           _lcd_send_bits
             _gpio_pin_write
           _lcd_send_enable_signal
             _gpio_pin_write
   _convert_uint8_to_string
     _memset
     _sprintf
       _vfprintf
         _vfpfcnvrt
           ___awdiv
           ___awmod
           _abs
             ___awmod (ARG)
           _fputc
             _putch
   _keypad_get_key_pressed
     _gpio_pin_read
     _gpio_pin_write
   _lcd_send_char_data_position
     _lcd_send_char_data
       _gpio_pin_write
       _lcd_send_bits
       _lcd_send_enable_signal
     _lcd_set_cursor_position
       _lcd_send_command
   _lcd_send_command
   _lcd_send_string_data_position
     _lcd_send_string_data
       _lcd_send_char_data
     _lcd_set_cursor_position

 Address spaces:
Name               Size   Autos  Total    Cost      Usage
BIGRAM             F7F      0       0      42        0.0%
EEDATA             400      0       0       0        0.0%
BITBANK14          100      0       0      32        0.0%
BANK14             100      0       0      33        0.0%
BITBANK13          100      0       0      30        0.0%
BANK13             100      0       0      31        0.0%
BITBANK12          100      0       0      28        0.0%
BANK12             100      0       0      29        0.0%
BITBANK11          100      0       0      26        0.0%
BANK11             100      0       0      27        0.0%
BITBANK10          100      0       0      24        0.0%
BANK10             100      0       0      25        0.0%
BITBANK9           100      0       0      22        0.0%
BANK9              100      0       0      23        0.0%
BITBANK8           100      0       0      20        0.0%
BANK8              100      0       0      21        0.0%
BITBANK7           100      0       0      18        0.0%
BANK7              100      0       0      19        0.0%
BITBANK6           100      0       0      16        0.0%
BANK6              100      0       0      17        0.0%
BITBANK5           100      0       0      14        0.0%
BANK5              100      0       0      15        0.0%
BITBANK4           100      0       0      12        0.0%
BANK4              100      0       0      13        0.0%
BITBANK3           100      0       0      10        0.0%
BANK3              100      0       0      11        0.0%
BITBANK2           100      0       0       8        0.0%
BANK2              100      0       0       9        0.0%
BITBANK1           100      0       0       6        0.0%
BANK1              100      0       0       7        0.0%
BITBANK15           80      0       0      34        0.0%
BANK15              80      0       0      35        0.0%
BITBANK0            80      0       0       4        0.0%
BANK0               80      0      20       5       25.0%
BITCOMRAM           7F      0       0       0        0.0%
COMRAM              7F     2C      72       1       89.8%
BITBIGSFRhll        59      0       0      38        0.0%
BITBIGSFRhh          D      0       0      36        0.0%
BITBIGSFRlh          4      0       0      39        0.0%
BITBIGSFRll          4      0       0      40        0.0%
BITBIGSFRhlh         1      0       0      37        0.0%
BIGSFR               0      0       0     200        0.0%
BITSFR               0      0       0     200        0.0%
SFR                  0      0       0     200        0.0%
STACK                0      0       0       2        0.0%
NULL                 0      0       0       0        0.0%
ABS                  0      0      92      41        0.0%
DATA                 0      0      92       3        0.0%
CODE                 0      0       0       0        0.0%


Microchip Technology PIC18 Macro Assembler V2.45 build 20230818022343 
Symbol Table                                                                                   Tue Oct 15 14:53:29 2024

                       ?_lcd_send_bits 0039                           ___awdiv@sign 0036  
                                  l202 1D2C                                    l214 1A0A  
                                  l226 1B6C                                    l234 1BF6  
                                  l229 1E1A                                    l174 15FA  
                                  l184 1C38                                    l361 1A6A  
                                  l610 1324                                    l179 1BB2  
                                  l189 1CF2                                    l197 1B22  
                                  l375 151C                                    l650 1AC8  
                                  l562 1E2C                                    l900 1E32  
                                  l636 196A                                    l629 1434  
                                  _abs 1D62                                    _key 0071  
        keypad_get_key_pressed@l_count 003E                                    _ret 0068  
                                  _str 0072                            lcd_init@ret 0045  
                         ___awmod@sign 0036                                    wreg 0FE8  
           __end_of_lcd_send_char_data 1C3A                            led_on@F3067 006F  
                                 ?_abs 0037                                   l1134 16BE  
                                 l3001 1DCE                                   l3003 1DD8  
                                 l1147 176E                                   l3011 1D3E  
                                 l3005 1DDA                                   l3013 1D46  
                                 l3101 14FA                                   l3021 1CB8  
                                 l3015 1D56                                   l3007 1D2E  
                                 l3103 150A                                   l3023 1CC8  
                                 l3031 1CF4                                   l3009 1D36  
                                 l3105 150C                                   l3025 1CD0  
                                 l3033 1D04                                   l3019 1E1C  
                                 l3107 1E2E                                   l3051 1BE2  
                                 l3043 1BB6                                   l3027 1CF0  
                                 l3035 1D0C                                   l3053 1BF4  
                                 l3045 1BB6                                   l3061 146A  
                                 l3037 1D1C                                   l1631 1C78  
                                 l3047 1BC6                                   l3063 146E  
                                 l3039 1D2A                                   l1625 11FE  
                                 l3049 1BCA                                   l3081 1496  
                                 l3057 1436                                   l1650 18C6  
                                 l1635 1D7C                                   l3091 14B6  
                                 l3083 14A4                                   l3075 1476  
                                 l3059 145A                                   l1580 1DF4  
                                 l2621 13B8                                   l2613 1326  
                                 l2701 163C                                   l1661 1E34  
                                 l3093 14C6                                   l3085 14B2  
                                 l3077 1484                                   l3069 1472  
                                 l1638 1D94                                   l2615 133A  
                                 l2711 1672                                   l2703 164E  
                                 l3095 14D6                                   l3079 1486  
                                 l2641 123C                                   l2625 1408  
                                 l2617 135A                                   l2801 1BB0  
                                 l2713 1688                                   l2705 1656  
                                 l2721 169E                                   l3097 14F8  
                                 l3361 17BC                                   l2643 1292  
                                 l2635 1200                                   l2619 1362  
                                 l2627 1432                                   l2723 16AE  
                                 l2715 1690                                   l2707 165E  
                                 l2731 16C4                                   l2811 1078  
                                 l1587 1D60                                   l3099 14F8  
                                 l3363 17D2                                   l3355 1770  
                                 l2637 1214                                   l2725 16B6  
                                 l2717 1692                                   l2709 166C  
                                 l2741 16F4                                   l2733 16D2  
                                 l2821 10DA                                   l2813 107C  
                                 l2805 1040                                   l2901 1C10  
                                 l3365 17E8                                   l3357 1790  
                                 l2647 12E2                                   l2639 1234  
                                 l2911 1A28                                   l2663 1B2C  
                                 l2719 1698                                   l2751 173A  
                                 l2743 1706                                   l2735 16DA  
                                 l2831 115A                                   l2823 10E4  
                                 l2815 1086                                   l2807 1064  
                                 l2903 1C36                                   l3383 19E2  
                                 l3367 17F4                                   l3359 17A6  
                                 l2649 1322                                   l3385 141C  
                                 l2921 1A38                                   l2665 1B58  
                                 l2657 1B24                                   l2681 1E18  
                                 l2673 1DF6                                   l2761 1766  
                                 l2753 1742                                   l2745 170E  
                                 l2737 16DE                                   l2729 16C0  
                                 l2841 11B6                                   l2833 116A  
                                 l2825 10FC                                   l2817 10A4  
                                 l2809 106C                                   l3369 1800  
                                 l3387 130C                                   l2931 1A58  
                                 l2923 1A48                                   l2907 1A0C  
                                 l2667 1B5A                                   l2675 1DF6  
                                 l2691 1616                                   l2755 1748  
                                 l2747 1716                                   l2739 16EC  
                                 l2771 1848                                   l2835 117A  
                                 l2843 11B8                                   l2827 112C  
                                 l2819 10C2                                   l2933 1A5A  
                                 l2917 1A2C                                   l2909 1A24  
                                 l2669 1B6A                                   l2677 1E02  
                                 l2861 154A                                   l2693 161A  
                                 l2685 15FC                                   l2749 1724  
                                 l2757 174E                                   l2781 1D70  
                                 l2773 1864                                   l2765 181E  
                                 l2837 118A                                   l2829 1148  
                                 l2845 11CE                                   l2941 1C70  
                                 l2791 1AC6                                   l2783 1A6C  
                                 l2919 1A36                                   l2679 1E0A  
                                 l2871 155C                                   l2855 151E  
                                 l2695 1628                                   l2687 1600  
                                 l2759 175E                                   l2775 1896  
                                 l2767 182E                                   l2839 119C  
                                 l2935 1C3A                                   l2951 190C  
                                 l2785 1A7C                                   l2929 1A4C  
                                 l2881 15A6                                   l2873 156C  
                                 l2857 1532                                   l2697 1630  
                                 l2689 160E                                   l2769 183E  
                                 l2849 11DA                                   l2937 1C42  
                                 l2953 1914                                   l2945 18C8  
                                 l2961 197C                                   l2787 1A9C  
                                 l2795 1B6E                                   l2891 15E2  
                                 l2883 15B2                                   l2875 157A  
                                 l2867 154E                                   l2859 1536  
                                 l2699 1634                                   l2779 1D62  
                                 l2939 1C52                                   l2955 1968  
                                 l2947 18DC                                   l2971 19BC  
                                 l2963 1980                                   l2789 1AA4  
                                 l2797 1B82                                   l2893 15EE  
                                 l2885 15BE                                   l2877 1586  
                                 l2869 155A                                   l2949 18EC  
                                 l2965 1986                                   l2799 1B8A  
                                 l2887 15CA                                   l2879 15A0  
                                 l2967 1998                                   l2975 19CE  
                                 l2959 196C                                   l2991 1B00  
                                 l2889 15D6                                   l2897 1BF8  
                                 l2969 19AA                                   l2977 1A08  
                                 l2993 1B02                                   l2985 1ACA  
                                 l2899 1C08                                   l2995 1B20  
                                 l2987 1ADE                                   l2989 1AE6  
                                 l2999 1DC6                                   STR_1 103C  
                                 STR_4 1036                                   STR_5 1025  
                                 STR_6 102E                                   STR_7 1011  
                                 u1210 1214                                   u1211 1210  
                                 u1220 1234                                   u1204 13D6  
                                 u1300 1628                                   u1221 1230  
                                 u1205 13D2                                   u1301 1624  
                                 u1310 164E                                   u1311 164A  
                                 u1320 166C                                   u1400 175E  
                                 u1321 1668                                   u1401 175A  
                                 u1250 12F8                                   u1234 125A  
                                 u1170 133A                                   u1330 1688  
                                 u1410 182E                                   u1251 12F2  
                                 u1235 1256                                   u1171 1336  
                                 u1331 1684                                   u1411 182A  
                                 u1260 12FA                                   u1244 12B0  
                                 u1180 135A                                   u1340 16AE  
                                 u1420 183E                                   u1500 10A4  
                                 u1245 12AC                                   u1181 1356  
                                 u1341 16AA                                   u1421 183A  
                                 u1501 10A0                                   u2117 14AA  
                                 _LATA 0F89                                   u1350 16D2  
                                 u1430 1864                                   u1510 10C2  
                                 _LATB 0F8A                                   u2127 1572  
                                 u1351 16CE                                   u1431 1860  
                                 u1511 10BE                                   _LATC 0F8B  
                                 u1280 1B6A                                   u1600 156C  
                                 u1360 16EC                                   u1440 1896  
                                 u1520 10F8                                   _LATD 0F8C  
                                 u1281 1B66                                   u2137 158C  
                                 u1601 1568                                   u1361 16E8  
                                 u1441 1892                                   u1521 10F2  
                                 _LATE 0F8D                                   u1194 1380  
                                 u1274 1B46                                   u1290 160E  
                                 u1370 1706                                   u1450 1D70  
                                 u1530 10FA                                   u1610 1C08  
                                 u1195 137C                                   u1275 1B42  
                                 u2147 15A2                                   u1291 160A  
                                 u1371 1702                                   u1451 1D6C  
                                 u1611 1C04                                   u1460 1A7C  
                                 u1620 1A24                                   u1380 1724  
                                 u1540 115A                                   u1700 197C  
                                 u1461 1A78                                   u1621 1A20  
                                 u2157 1E04                                   u1381 1720  
                                 u1541 1156                                   u1701 1978  
                                 u1470 1A9C                                   u1630 1A48  
                                 u1390 173A                                   u1550 116A  
                                 u1710 1ADE                                   u1471 1A98  
                                 u1631 1A44                                   u1391 1736  
                                 u1551 1166                                   u1711 1ADA  
                                 u1640 1A6A                                   u1480 1B82  
                                 u1560 117A                                   u1800 14D6  
                                 u1720 1B20                                   u1641 1A66  
                                 u1481 1B7E                                   u1561 1176  
                                 u1801 14D2                                   u1721 1B1C  
                                 u1730 1DF4                                   u1570 118A  
                                 u1490 1064                                   u1650 1C70  
                                 u1810 150A                                   u1731 1DF0  
                                 u1571 1186                                   u1491 1060  
                                 u1651 1C6C                                   u1811 1506  
                                 u1580 11CA                                   u1660 18DC  
                                 u1820 151C                                   u1740 1CC8  
                                 u1581 11C6                                   u1661 18D8  
                                 u1821 1518                                   u1741 1CC4  
                                 u1590 1532                                   u1670 18EC  
                                 u1750 1D04                                   u1591 152E  
                                 u1671 18E8                                   u1751 1D00  
                                 u1760 1BC6                                   u1680 190C  
                                 u1761 1BC2                                   u1681 1908  
                                 u1770 145A                                   u1771 1456  
                                 u1780 146A                                   u1781 1466  
                                 u1694 195C                                   u1790 1496  
                                 u1695 1958                                   u1791 1492  
 keypad_get_key_pressed@l_column_count 0040                                   abs@a 0037  
                                 _dbuf 0080                                   _main 1770  
                                 _prec 005F                                   fsr1h 0FE2  
                                 fsr2h 0FDA                                   indf1 0FE7  
                                 indf2 0FDF                                   fsr1l 0FE1  
                                 fsr2l 0FD9               ?_gpio_pin_direction_init 0031  
             ??_keypad_get_key_pressed 003B                                   prodl 0FF3  
                                 start 0000                           ___param_bank 0000  
      ??_lcd_send_string_data_position 004C                                  ??_abs 0039  
              _lcd_set_cursor_position 196C                                  ?_main 0031  
                    gpio_pin_write@ret 0038                        __end_of___awdiv 16C0  
                      __end_of___awmod 1770                        ___awdiv@divisor 0033  
                         led_off@F3072 006E                        ___awdiv@counter 0035  
                    ?_lcd_send_command 003F                           vfpfcnvrt@fmt 003C  
                                _PORTA 0F80                                  _PORTB 0F81  
                                _PORTC 0F82                                  _PORTD 0F83  
                                _PORTE 0F84                                  _TRISA 0F92  
                                _TRISB 0F93                                  _TRISC 0F94  
                                _TRISD 0F95                                  _TRISE 0F96  
                   ??_lcd_send_command 0041                                  _lcd_1 001F  
                                _flags 0067                           ?_keypad_init 003C  
                                _fputc 181E                                  _width 005D  
                                _putch 1E34   lcd_send_string_data_position@lcd_obj 0048  
                                tablat 0FF5                                  status 0FD8  
                      __end_of_sprintf 1D62                        __initialization 1C7A  
                      ??_lcd_send_bits 003B                           __end_of_main 181E  
                               ??_main 005D                          __activetblptr 0003  
                               ?_fputc 0031                       ___awdiv@dividend 0031  
        lcd_send_enable_signal@lcd_obj 0039                                 ?_putch 0031  
                        vfpfcnvrt@done 003F                       __end_of_app_init 1E34  
                         vfprintf@cfmt 0049                       __end_of_lcd_init 15FC  
             ??_lcd_send_enable_signal 003A                              ??___awdiv 0035  
                            ??___awmod 0035              ??_lcd_set_cursor_position 0046  
                        _gpio_pin_init 1A6C                          _gpio_pin_read 18C8  
                               _memset 1DC6                                 clear_0 1CA0  
                               clear_1 1CAC            keypad_get_key_pressed@value 003A  
                     ___awdiv@quotient 0037                        ___awmod@divisor 0033  
                               isa$std 0001                        ___awmod@counter 0035  
                        led_init@F3062 0070                                 fputc@c 0031  
                         __pdataCOMRAM 0001                           __mediumconst 0000  
                               tblptrh 0FF7                                 tblptrl 0FF6  
                               tblptru 0FF8                                 putch@c 0031  
                     __end_of_vfprintf 1C7A                              ??_sprintf 004E  
                 lcd_send_bits@lcd_obj 0039                   lcd_send_bits@l_count 003E  
              _convert_uint8_to_string 1BB4                             __accesstop 0080  
              __end_of__initialization 1CB2                          ___rparam_used 0001  
           convert_uint8_to_string@str 005B                         __pcstackCOMRAM 0031  
                       ?_gpio_pin_init 0039                         ?_gpio_pin_read 0031  
                        __end_of_fputc 18C8                          __end_of_putch 1E36  
  __end_of_lcd_send_char_data_position 1CF4            _lcd_send_char_data_position 1CB8  
               _keypad_get_key_pressed 1436        __end_of_lcd_set_cursor_position 1A0C  
                              ??_fputc 0034                                ??_putch 0031  
                           __pbssBANK0 0080                  lcd_send_char_data@ret 0041  
                _INT0_InterruptHandler 0065       lcd_send_string_data_position@col 004B  
     lcd_send_string_data_position@ret 004C       lcd_send_string_data_position@row 004A  
     lcd_send_string_data_position@str 0049                lcd_send_string_data@ret 0044  
              lcd_send_string_data@str 0043                     _lcd_send_char_data 1BF8  
                     lcd_send_bits@ret 003D                    ?_lcd_send_char_data 003F  
                      led_toggle@F3077 006D                                ?_memset 0031  
                 ??_lcd_send_char_data 0041                              ?_app_init 0031  
            ??_convert_uint8_to_string 005C                              ?_lcd_init 0043  
                              __Hparam 0000                                __Lparam 0000  
                      ??_gpio_pin_init 003A                        ??_gpio_pin_read 0033  
                              ___awdiv 15FC                                ___awmod 16C0  
                            ?_vfprintf 0046                           __psmallconst 1000  
                              __pcinit 1C7A                                __ramtop 1000  
                        relay_on@F3062 006B                                __ptext0 1770  
                              __ptext1 1CF4                                __ptext2 1ACA  
                              __ptext3 1CB8                                __ptext4 196C  
                              __ptext5 1BF8                                __ptext6 1436  
                              __ptext7 18C8                                __ptext8 1BB4  
                              __ptext9 1D2E                         _gpio_pin_write 1326  
                              _lat_reg 000B                       ___awmod@dividend 0031  
                           ??_app_init 0047                 _lcd_send_enable_signal 1DF6  
                keypad_init@keypad_obj 003C                                _sprintf 1D2E  
                      lcd_init@lcd_obj 0043                             ??_lcd_init 0044  
                      lcd_init@l_count 0046                   end_of_initialization 1CB2  
     gpio_pin_direction_init@pin_confg 0031                                fputc@fp 0033  
                              memset@c 0032                                memset@n 0034  
                              memset@p 0036                      __end_of_vfpfcnvrt 1200  
               gpio_pin_init@pin_confg 0039        __end_of_convert_uint8_to_string 1BF8  
                              postdec1 0FE5                                postdec2 0FDD  
                              postinc0 0FEE                                postinc1 0FE6  
                              postinc2 0FDE                       vfpfcnvrt@convarg 0041  
                           ??_vfprintf 0049                  __end_of_lcd_send_bits 1B6E  
               __end_of_gpio_pin_write 1436                  lcd_send_bits@data_cmd 003A  
                _INT1_InterruptHandler 0063                       gpio_pin_init@ret 003B  
                     gpio_pin_read@ret 0037              keypad_get_key_pressed@num 003C  
       lcd_set_cursor_position@lcd_obj 0043                gpio_pin_write@pin_confg 0031  
              gpio_pin_write@pin_state 0032                      relay_toggle@F3072 0069  
               gpio_pin_read@pin_confg 0031                 gpio_pin_read@pin_state 0032  
              _gpio_pin_direction_init 1200                            vfpfcnvrt@ap 003D  
                          vfpfcnvrt@cp 0040                            vfpfcnvrt@fp 003B  
              ?_keypad_get_key_pressed 0039                          __pidataCOMRAM 1D96  
                      ?_gpio_pin_write 0031                         __end_of_memset 1DF6  
      lcd_send_char_data_position@data 0049                    start_initialization 1C7A  
         __end_of_lcd_send_string_data 1B24                            __end_of_abs 1D96  
   lcd_send_char_data_position@lcd_obj 0048      keypad_get_key_pressed@l_row_count 003F  
                     _lcd_send_command 1B6E               ?_lcd_set_cursor_position 0043  
                          vfprintf@fmt 0047                keypad_init@column_count 003E  
       __end_of_keypad_get_key_pressed 151E                               ??_memset 0036  
         __end_of_ecu_layer_initialize 1E2E                             memset@dest 0031  
__end_of_lcd_send_string_data_position 1D2E          _lcd_send_string_data_position 1CF4  
                          __pbssCOMRAM 005D                 lcd_send_char_data@data 0040  
            lcd_send_char_data@lcd_obj 003F             lcd_set_cursor_position@col 0045  
           lcd_set_cursor_position@row 0044           convert_uint8_to_string@value 005C  
                        ??_keypad_init 003D                  _INT2_InterruptHandler 0061  
            ??_gpio_pin_direction_init 0032                               ?___awdiv 0031  
                             ?___awmod 0031                    lcd_send_command@cmd 0040  
                  lcd_send_command@ret 0042                            __smallconst 1000  
              ?_lcd_send_enable_signal 0039            lcd_send_string_data@lcd_obj 0042  
                             ?_sprintf 004A                         _keypad_buttons 1001  
                  __end_of_keypad_init 1A6C                   _lcd_send_string_data 1ACA  
                __end_of_gpio_pin_init 1ACA                  __end_of_gpio_pin_read 196C  
                            _vfpfcnvrt 1040         __end_of_lcd_send_enable_signal 1E1C  
             ?_convert_uint8_to_string 005B                   keypad_init@row_count 003D  
      __end_of_gpio_pin_direction_init 1326                        relay_init@F3057 006C  
                           vfpfcnvrt@c 0045                            _INTCON3bits 0FF0  
                            copy_data0 1C8E         ?_lcd_send_string_data_position 0048  
               __end_of_keypad_buttons 1011                   _ecu_layer_initialize 1E1C  
                             __Hrparam 0000                  ?_lcd_send_string_data 0042  
                           vfprintf@ap 0048                               __Lrparam 0000  
                           vfprintf@fp 0046                       ??_gpio_pin_write 0033  
     keypad_get_key_pressed@keypad_obj 0039                             ?_vfpfcnvrt 003B  
         ?_lcd_send_char_data_position 0048               __end_of_lcd_send_command 1BB4  
                           sprintf@fmt 004B                               __ptext10 1C3A  
                             __ptext11 1040                               __ptext20 151E  
                             __ptext12 181E                               __ptext21 1B6E  
                             __ptext13 1E34                               __ptext22 1DF6  
                             __ptext14 1D62                               __ptext23 1B24  
                             __ptext15 16C0                               __ptext24 1A0C  
                             __ptext16 15FC                               __ptext25 1A6C  
                             __ptext17 1DC6                               __ptext26 1326  
                             __ptext18 1E2E                               __ptext27 1200  
                             __ptext19 1E1C                               _app_init 1E2E  
                          _keypad_init 1A0C                               _lcd_init 151E  
                ?_ecu_layer_initialize 0031                               _keypad_1 0029  
                       relay_off@F3067 006A              lcd_send_enable_signal@ret 003A  
                             isa$xinst 0000                               _port_reg 0001  
                             _vfprintf 1C3A                               _tris_reg 0015  
        ??_lcd_send_char_data_position 004C                             _INTCONbits 0FF2  
              lcd_send_command@lcd_obj 003F                lcd_send_command@l_count 0041  
                            sprintf@ap 004E                 ??_lcd_send_string_data 0044  
                          ??_vfpfcnvrt 003E                          _lcd_send_bits 1B24  
                             sprintf@f 004F                               sprintf@s 004A  
  keypad_get_key_pressed@col_pin_state 003D             gpio_pin_direction_init@ret 0037  
               ??_ecu_layer_initialize 0047         lcd_send_char_data_position@col 004B  
       lcd_send_char_data_position@ret 004C         lcd_send_char_data_position@row 004A  
